c__builtin__
set
p0
((lp1
VNuts & Snacks - Corn Snack
p2
aVCheese - Swiss Cheese
p3
aVJuice or Drink - Raspberry Juice
p4
aVPasta - Spaghetti
p5
aVBreakfast & Biscuits - Other Breakfast Sandwiches
p6
aVHot Dogs & Brats - Beef Sausages
p7
aVPasta - Penne
p8
aVFrozen Desserts - Pies & Cheesecake
p9
aVDip & Salsa - Hummus
p10
aVUSDA - Pears
p11
aVHomeopathy - Miscellaneous
p12
aVNoodles - Oriental Foods & Chow Mein
p13
aVSpecialty Formula Supplements - Detox Supplements
p14
aVFrozen Pizza - Deluxe & Supreme
p15
aVMilk Additives - Liquid Non-dairy Creamers
p16
aVHair Dyes, Lighteners and Other Coloring Preparations
p17
aVFish & Seafood - Other Fish
p18
aVHealth & Recovery - Recovery Drinks
p19
aVHealth Care - Digestive & Detoxifying Treatments
p20
aVRice - White
p21
aVSalad Dressing - Mayonnaise Alternative
p22
aVHomeopathy - Salves and Ointments
p23
aVFrozen Pizza - Cheese
p24
aVShaving and Hair Removal Products Sets & Kits
p25
aVUSDA - Game Meat
p26
aVHerbs & Spices - Pepper & Garlic
p27
aVFrozen Dinners - Pork Based Meals and Main Dishes (< 6 oz)
p28
aVFacial Cleansing Preparations
p29
aVHerbs & Spices - Nutmeg & Cinnamon
p30
aVSeasoning - Salt
p31
aVAlcohol - Drink Mixes & Rimmers
p32
aVFrozen Vegetables - Corn
p33
aVDigestive & Fiber Supplements - Digestive Aids
p34
aVBaby Food - Cereal
p35
aVSeasoning - Other Meat Seasoning
p36
aVCanned Seafood - Other Seafood
p37
aVCleaning Supplies - Dish Soap
p38
aVNuts & Snacks - Peanuts
p39
aVPasta - Tortellini & Ravioli
p40
aVPasta & Pizza Sauce - Flavored with Meat
p41
aVPowdered Drink - Other Flavors & Drinks
p42
aVIced Tea - Lemon Flavor
p43
aVTea Bags - Herbal
p44
aVLunch Snacks - Lunchables
p45
aVBreakfast & Biscuits - Breakfast Burritos & Wraps
p46
aVCookies & Biscuits - Graham Crackers
p47
aVCookies & Biscuits - Chocolate Chip, Chocolate Chunk & Chocolate Covered
p48
aVCheese - Cheese Slices & Singles
p49
aVCanned Beans - Great Northern Beans
p50
aVHealth Care - Other Healthcare
p51
aVFrozen Appetizers - Chicken Patties
p52
aVAmino Acid Supplements - L-Taurine
p53
aVVitamins - Vitamin B Complex
p54
aVFrozen Pizza - Other
p55
aVClothing - Organic & Fair Trade Clothing
p56
aVVitamins - Vitamin E
p57
aVSugar - Plain
p58
aVSauces - Stir Fry Sauce
p59
aVFatty Acid Supplements - Miscellaneous
p60
aVUSDA - Pork
p61
aVMilk Additives - Liquid Flavored Creamers
p62
aVSpecialty Formula Supplements - Pain
p63
aVSalad Dressing - Mayonnaise
p64
aVHazelnut Butter
p65
aVOral Hygiene Products Sets & Kits
p66
aVOther Pastries - Savory & Sweet Muffins
p67
aVCanned Meat - Beef In A Can
p68
aVSnacks - Rice Snacks
p69
aVBars - For Kids
p70
aVJam & Jelly - Blueberry Flavor
p71
aVSauces - Oyster & Hoisin Sauce
p72
aVFrozen Fruit & Juice - Frozen Juice Concentrates
p73
aVHerbs & Spices - Vanilla
p74
aVHome Decoration - Other
p75
aVRice - Other Rice
p76
aVCandy - Other
p77
aVBreads & Buns - Baguettes & French Bread
p78
aVChewing Gum - Mints
p79
aVDigestive & Fiber Supplements - Enzymes
p80
aVDehydrated Vegetables - Other
p81
aVCereal - Granola
p82
aVDessert Toppings - Baking Decorations
p83
aVVitamins - Vitamin B2 (Riboflavin)
p84
aVBars - Meat Bars
p85
aVCrackers - Nut & Rice Crackers
p86
aVFrozen Desserts - Other Frozen Desserts
p87
aVCrackers - Ice Cream Cones
p88
aVCakes & Snacks - Pies
p89
aVAromatherapy - Candles
p90
aVJuice or Drink - Mixed Fruit & Vegetable Juice
p91
aVNuts & Snacks - Yogurt/Chocolate Covered Nuts or Fruit
p92
aVSpecialty Formula Supplements - Cellular Growth
p93
aVMinerals - Molybdenum
p94
aVJuice or Drink - Beet Juice
p95
aVVitamins - Vitamin B5 (Pantothenic acid)
p96
aVCandy - Licorice & Twists
p97
aVChewing Gum - Sugar Free All Flavors
p98
aVFrozen Appetizers - Seafood Based
p99
aVChildcare - Diapers
p100
aVTea Bags - Blend
p101
aVBulk Baking - Other
p102
aVBars - Granola & Trail Mix Bars
p103
aVBreads & Buns - Other Bread
p104
aVSpecialty Formula Supplements - Allergy/Hay Fever
p105
aVSeasoning - Bouillon
p106
aVBreads & Buns - Sprouted
p107
aVPoultry - Other
p108
aVFace Creams and Lotions
p109
aVFruit Snacks - Mixed
p110
aVCanned Tomatoes - Diced & Crushed
p111
aVIce Cream - Mint Flavor
p112
aVCanned Vegetables - Mixed
p113
aVHerbal Supplements - Herbal Liquids
p114
aVFrozen Dinners - Chicken Based Main Dish (6 to 9.99 oz)
p115
aVCereal - Wheat
p116
aVPasta Dinners - Mac & Cheese
p117
aVFrozen Dinners - Chicken Based Meals and Main Dishes (< 6 oz)
p118
aVSpecialty Formula Supplements - Ear Care
p119
aVCanned Soup - Cream Of
p120
aVDeli - Prepared Salads
p121
aVHair Coloring Preparations Sets & Kits
p122
aVCrackers - Soup Crackers & Toppers
p123
aVCooking Sauces - Sloppy Joe Sauce
p124
aVCanned Soup - Tomato
p125
aVDigestive & Fiber Supplements - Pro-Biotics
p126
aVCleaning Supplies - Room Fresheners & Deoderizers
p127
aVPotato & Savory Pancakes
p128
aVDip & Salsa - Other
p129
aVGreen Supplements - Alfalfa
p130
aVBaking Condiments - Coconut
p131
aVSoda - Regular Cola
p132
aVBaby & Child Supplements - Children's Vitamins
p133
aVSugar - Sugar Cubes
p134
aVSpecialty Formula Supplements - Glandulars
p135
aVCanned Meals - Other Chili & Stew
p136
aVDeli - Quiche & Other Prepared Deli Meals
p137
aVDip & Salsa - Caramel & Chocolate
p138
aVTea Bags - Black
p139
aVCrackers - Crackerbread
p140
aVCanned Fruit - Mandarins & Oranges
p141
aVSeasoning - Dip Mixes
p142
aVPackaged Deli Meats - Chicken
p143
aVPudding - Pudding Mix
p144
aVTea Bags - Green
p145
aVFrozen Bread - Cookie Dough
p146
aVRice - Brown & Wild
p147
aVAmino Acid Supplements - L-Carnitine
p148
aVCleaning Supplies - Tissue & Paper Towels
p149
aVFrozen Desserts - Cakes
p150
aVDigestive & Fiber Supplements - Fiber
p151
aVSeasoning - Seafood Seasoning
p152
aVFrozen Vegetables - Other Vegetables
p153
aVSeasoning - Cooking Bag & Seasoning Mix
p154
aVPowdered Drink - Instant Cocoa & Flavored or Malted Milk
p155
aVCanned Vegetables - Potatoes
p156
aVJuice or Drink - Cranberry Juice
p157
aVYogurt - Other
p158
aVCheese - Spreadable Cheese
p159
aVSpecialty Formula Supplements - Bee Products
p160
aVSalad Dressing - Thousand Island
p161
aVPasta & Pizza Sauce - Chunky Sauce
p162
aVCanned Tuna - Flavored Tuna
p163
aVCoffee - Flavored Coffee
p164
aVDog Food - Dog Treats
p165
aVGels & Pectins - Fruit Gelatin & Gelatin Cups
p166
aVMilk Additives - Dry Flavored Creamers
p167
aVHerbs & Spices - Basil & Oregano
p168
aVPasta - Rotini
p169
aVSpecialty Formula Supplements - Urinary Tract
p170
aVCereal - Oatmeal Dry Flavored Hot
p171
aVPasta & Pizza Sauce - Vegetable Based Sauce
p172
aVPackaged Deli Meats - Salami & Cured Meats
p173
aVUSDA - Persimmons
p174
aVFrozen Appetizers - Chicken Based
p175
aVShampoos (Including 2 in 1 Shampoo and Conditioner)
p176
aVMen's Underwear - Boxer Briefs
p177
aVCanned Tomatoes - Chopped & Sliced
p178
aVFrozen Desserts - Non-Dairy Desserts
p179
aVCooking Oil - Olive Oil
p180
aVCookies & Biscuits - European Cookies & Biscuits
p181
aVShaving Cream
p182
aVBaby Shampoos
p183
aVBreads & Buns - Potato Bread
p184
aVYogurt - Greek Low Fat
p185
aVSalad Dressing - Ranch
p186
aVPowdered Drink - Strawberry Flavor
p187
aVCanned Fruit - Other
p188
aVFrozen Appetizers - Meatball Entrees
p189
aVDip & Salsa - Mexican Salsa & More
p190
aVBulk Confection & Snacks - Nuts & Seeds
p191
aVCookies & Biscuits - Wafers
p192
aVHerbal Supplements - Specialty Formulas
p193
aVBaking Additives - Baking Powder, Soda & Yeast
p194
aVCrackers - Biscotti
p195
aVBars - Fruit Bars
p196
aVMinerals - Iron
p197
aVBreads & Buns - Sweet Breads
p198
aVSpread - Vegetable Oil Spreads
p199
aVHot Dogs & Brats - Pork Sausages
p200
aVAlmond Butter
p201
aVOther Meats - Soy & Vegetarian Options
p202
aVSalad Dressing - Other
p203
aVWeight Control - Meal Replacement Drink Mixes
p204
aVHealth Care - Contraception & Sexual Health
p205
aVWholesome Snacks - Soy Snacks, Chips & Nuts
p206
aVPasta - Elbows & Macaroni
p207
aVDigestive & Fiber Supplements - Cleanse Kits
p208
aVCanned Vegetables - Other Vegetables
p209
aVFrozen Appetizers - Sausage Based
p210
aVCookies & Biscuits - Oatmeal & Granola
p211
aVPackaged Fruit & Veg - Fresh Herbs
p212
aVFlour - Cornmeal, Corn Starch & All-Purpose Mixes
p213
aVFrozen Dinners - Pork Based Main Dish (6 to 9.99 oz)
p214
aVSpecialty Formula Supplements - DHEA
p215
aVGrooming & First Aid - Nasal Aspirator
p216
aVFrozen Dinners - Pasta Meals
p217
aVPoultry - Chicken
p218
aVPrepared Sushi
p219
aVCanned Tomatoes - Stewed & Flavored
p220
aVUSDA - Goat
p221
aVApple Butter
p222
aVCakes & Snacks - Cupcakes
p223
aVIce Cream - Sundae, Sugar Cones & Ice Cream Cones
p224
aVFruit Snacks - Mango
p225
aVUSDA - Duck
p226
aVBars - Breakfast Bars
p227
aVFrozen Pizza - Vegetable
p228
aVUSDA - Eggs
p229
aVBaking Condiments - Dried Fruit
p230
aVIce Cream - Vanilla Flavor
p231
aVAntioxidant Supplements - Lutein
p232
aVJuice or Drink - Prune Juice
p233
aVSnacks - Meat Sticks & Jerky
p234
aVPasta - Barley, Quinoa & Other Grains
p235
aVFrozen Vegetables - Vegetables With Sauces
p236
aVCereal - Corn
p237
aVSalad Dressing - Cole Slaw
p238
aVFatty Acid Supplements - Cod Liver Oil
p239
aVSpecialty Formula Supplements - Anxiety/Sleep
p240
aVNuts & Snacks - Brazil Nut
p241
aVCream, Flavored & Whipping Creams
p242
aVCanned Seafood - Crab
p243
aVCondiments - Asian
p244
aVCanned Soup - Seafood
p245
aVPackaged Deli Meats - Other Meats
p246
aVPasta & Pizza Sauce - Other Sauces
p247
aVSnacks - Seaweed
p248
aVCheese - Feta
p249
aVTea Bags - Chai
p250
aVHealth & Recovery - Energy Drinks
p251
aVTea Bags - All Other Tea
p252
aVBreads & Buns - Raisin, Cinnamon & Fruit Bread
p253
aVFresh Eggs
p254
aVBars - Protein & Recovery Bars
p255
aVMasks
p256
aVCanned Tuna - Tuna in Oil
p257
aVFrozen Dinners - Seafood Based Meals (>= 10 oz)
p258
aVHealth Care - Pain Relief
p259
aVDip & Salsa - Tzatziki
p260
aVBaby Food - Fruit & Vegetable Snacks
p261
aVMilk - Canned & Evaporated
p262
aVSalad Dressing - Asian
p263
aVAlcohol - Fortified Wine
p264
aVCookies & Biscuits - Other
p265
aVJuice or Drink - Grape Juice
p266
aVVitamins - Advanced Vitamin Complexes
p267
aVSauces - Other Ethnic & Oriental Sauce
p268
aVKitchen Supplies - Cooking Equipment
p269
aVFrozen Dinners - Vegetable Based Main Dish (6 to 9.99 oz)
p270
aVCanned Vegetables - Sweet Potatoes & Yams
p271
aVCooking Oil - Cooking Sprays
p272
aVBulk Baking - Cocoa Replacer
p273
aVFrozen Pizza - Bread & Single Serve Pizza
p274
aVIce Cream - Banana Flavor
p275
aVAmino Acid Supplements - L-Glutamic acid
p276
aVCereal - For Kids
p277
aVOther Grains & Seeds - Quinoa
p278
aVSauces - Chilli Paste
p279
aVPackaged Deli Meats - Turkey
p280
aVSeasoning - Other Seasoning & Sauce Mixes
p281
aVAftershave Preparations
p282
aVCanned Vegetables - Peas
p283
aVSalad Dressing - Onion
p284
aVPasta & Pizza Sauce - Alfredo & Cream Based Sauce
p285
aVPowdered Drink - Raspberry Flavor
p286
aVCleaning Supplies - Laundry Supplies
p287
aVPasta - Farfalle
p288
aVPasta & Pizza Sauce - Arrabbiata
p289
aVNuts & Snacks - Pistachios
p290
aVCanned Tomatoes - Tomato Sauce Plain
p291
aVCoffee - Instant
p292
aVHerbal Supplements - Miscellaneous
p293
aVDigestive & Fiber Supplements - Betaine HCI
p294
aVBreakfast & Biscuits - Breakfast Main Dish (6 to 9.99 oz)
p295
aVFrozen Dinners - Burritos
p296
aVCrackers - Sesame Crackers
p297
aVIce Cream - Frozen Pies
p298
aVCookies & Biscuits - Peanut Butter
p299
aVSoda - Lemon & Lime Soda
p300
aVAlcohol - Wine
p301
aVSpecialty Formula Supplements - Candida Formula
p302
aVAmino Acid Supplements - DL-Phenylalanine (DLPA)
p303
aVSalad Dressing - Yogurt Based
p304
aVBath Oils, Salts and Other Bath Additives
p305
aVYogurt - Non-Dairy Soy Yogurt
p306
aVSeasoning - Salt Substitute
p307
aVSauces - Peanut Sauce
p308
aVOther Drinks - Iced Coffee
p309
aVPackaged Deli Meats - Bologna & Mortadella
p310
aVCereal - Other Hot Cereal
p311
aVWholesome Snacks - Fruit Bars
p312
aVNuts & Snacks - Sunflower Seeds
p313
aVCrackers - Plain
p314
aVBars - For Females
p315
aVDip & Salsa - Sour Cream Dip
p316
aVWater - Non Carbonated Flavored
p317
aVPackaged Fruit & Veg - Garlic
p318
aVCanned Fruit - Pears
p319
aVMinerals - Magnesium
p320
aVCheese - Parmesan & Romano
p321
aVOther Drinks - Ciders
p322
aVCooking Sauces - Cooking Wines, Sherry, Vinegar
p323
aVSnack Crackers - Cheese & Peanut Butter
p324
aVFatty Acid Supplements - Flax Seed Oil
p325
aVBreakfast & Biscuits - Omelette
p326
aVSoup - Prepared Soups
p327
aVCleaning Supplies - Household Cleaners
p328
aVFrozen Bread - Bread Loaves & Slices
p329
aVVitamins - Vitamin B3 (Niacin)
p330
aVPowdered Drink - Cappuccino & Coffee Mixes
p331
aVHealth Care - Anti-Fungal
p332
aVOther Pastries - Toaster Pastries
p333
aVSpecialty Formula Supplements - Auto-Immune Support
p334
aVBread Mix - Bread, Roll & Muffin Mixes
p335
aVFrozen Appetizers - Beef Tips & Fingers
p336
aVDeli - Peppers
p337
aVSnacks - Party & Snack Packs
p338
aVSeasoning - Popcorn Seasoning
p339
aVCereal - Grits Dry Plain Hot
p340
aVHealth Care - Allergy Relief
p341
aVFrozen Appetizers - Pasta Based
p342
aVDip & Salsa - Onion, Vegetable, Bean & Guacamole Dip
p343
aVGardening - Miscellaneous
p344
aVCanned Beans - Other Beans
p345
aVMen's Underwear - Under Shirts
p346
aVAmino Acid Supplements - Amino Acid Combinations
p347
aVCoffee - Ground Coffee
p348
aVPowdered Drink - Lemon & Lime Flavor
p349
aVSalad Dressing - Balsamic
p350
aVHerbs & Spices - Chilli & Ginger
p351
aVHot Dogs & Brats - Other
p352
aVSoup - Matzo Ball Soup
p353
aVBreads & Buns - Hamburger, Hot Dog & Dinner Rolls
p354
aVVitamins - Miscellaneous
p355
aVFrozen Dinners - Pork Based Meals (>= 10 oz)
p356
aVLunch Snacks - Biscuits & Burgers
p357
aVCandy - Lollipops
p358
aVCanned Meat - Pate & Meat Spreads
p359
aVCanned Tomatoes - Tomato Sauce Flavored
p360
aVFrozen Bread - Dough
p361
aVHerbs & Spices - Cumin & Turmeric
p362
aVJuice or Drink - Guava Juice
p363
aVFatty Acid Supplements - Salmon Oil
p364
aVSpecialty Formula Supplements - Bone and Joint Formula
p365
aVSnacks - Bagel & Pita Chips
p366
aVBreads & Buns - Italian Bread
p367
aVAmino Acid Supplements - L-Glutathione
p368
aVCheese - Muenster
p369
aVMilk - Coconut Milk Plain
p370
aVDeli - Other Deli Goods
p371
aVPackaged Deli Meats - Ham
p372
aVBaking Condiments - Dried Fruit & Vegetables
p373
aVGreen Supplements - Miscellaneous
p374
aVChips & Snacks - Pretzels
p375
aVCashew Butter
p376
aVApple Sauce
p377
aVDentifrices (Toothpaste)
p378
aVDessert Toppings - Whipped Topping
p379
aVCooking Oil - Vegetable Oil
p380
aVSugar - Sugar Substitutes & Sweeteners
p381
aVCanned Tomatoes - Whole & Peeled
p382
aVPackaged Deli Meats - Mixed Deli Meat
p383
aVHair Styling Preparations
p384
aVPasta Dinners - Pasta Salad
p385
aVBars - Meal Replacement Bars
p386
aVMexican - Other Mexican Seasonings
p387
aVBreakfast & Biscuits - Breakfast Entrees & Meals
p388
aVSalad Dressing - Vinaigrette (Other)
p389
aVFrozen Dinners - Beef Based Meals and Main Dishes (< 6 oz)
p390
aVDessert Toppings - Other Dessert Toppings
p391
aVFrench Toast
p392
aVPlant Based Water - Coconut Water
p393
aVFrozen Dinners - Turkey Based Main Dish (6 to 9.99 oz)
p394
aVEye Lotion and Cream
p395
aVDigestive & Fiber Supplements - Charcoal
p396
aVCanned Soup - Pea
p397
aVJuice or Drink - Mixed Fruit Juice
p398
aVAmino Acid Supplements - L-Theanine
p399
aVPasta - Linguine
p400
aVOther Meats - Pork
p401
aVAmino Acid Supplements - Glycine
p402
aVDeli - Olives
p403
aVSeasoning - Pickle Mix & Mulling Spices & Seasonings
p404
aVSpecialty Formula Supplements - Vitamin/Mineral Combination
p405
aVCooking Sauces - Other
p406
aVDeli - Relish
p407
aVStuffing Mixes
p408
aVDigestive & Fiber Supplements - Heartburn
p409
aVOther Meats - Other
p410
aVCondiments - Mustard
p411
aVFrozen Vegetables - Green Beans, Lima Beans, Peas & Carrots
p412
aVMilk - Rice Milk Flavored
p413
aVAlcohol - Non-Alcoholic Beer & Wine
p414
aVIce Cream - Cake, Bites & Other Novelties
p415
aVAromatherapy - Aromatherapy Oils
p416
aVFish & Seafood - Fish Fillets
p417
aVCookies & Biscuits - Shortbread
p418
aVLiquid Water Enhancer - Tea Mix
p419
aVOther Grains & Seeds - Barley
p420
aVSauces - Curry Paste
p421
aVSpecialty Formula Supplements - Cholesterol/Blood Pressure
p422
aVFrozen Bread - Muffins, Biscuits & Bagels
p423
aVPasta - Lasagne
p424
aVBody Creams and Lotions
p425
aVMilk - Flavored
p426
aVBaby Food - Juice & Drinks
p427
aVMinerals - Potassium (K+)
p428
aVSeasoning - Ethnic Dry Food Mix
p429
aVSpecialty Formula Supplements - Children's Formulas
p430
aVCanned Tomatoes - Tomato Puree
p431
aVMouthwashes and Breath Fresheners
p432
aVCheese - Ricotta
p433
aVFruit Snacks - Cranberries
p434
aVNuts & Snacks - Walnuts
p435
aVCanned Meat - Ham In A Can
p436
aVCakes & Snacks - Cakes & Loaves
p437
aVJam & Jelly - Strawberry Flavor
p438
aVCheese - Cream Cheese
p439
aVWaffles
p440
aVPasta Dinners - Pasta
p441
aVPasta - Fettuccine
p442
aVJuice or Drink - Other Juice Flavors
p443
aVPudding - Pudding
p444
aVBulk Confection & Snacks - Trail Mix & Granola
p445
aVSpread - Sandwich Spreads & Other Spreads
p446
aVYogurt - Classic
p447
aVCat Food - Cat Food Wet
p448
aVChips & Snacks - Other
p449
aVVitamins - Vitamin D
p450
aVCookies & Biscuits - Fruit Filled & Flavored
p451
aVVitamins - Vitamin C
p452
aVBaby Food - Other
p453
aVVitamins - Vitamin A
p454
aVCandy - Chewy
p455
aVHealth & Recovery - Drinks
p456
aVJuice or Drink - Orange Juice
p457
aVVitamins - Vitamin K
p458
aVFrozen Bread - Bread Rolls
p459
aVPowdered Drink - Iced Tea & Tea Mixes
p460
aVHealth & Recovery - Protein Drinks
p461
aVGrooming & First Aid - Diaper Rash Treatment
p462
aVIce Cream - Chocolate Flavor
p463
aVSauces - Teriyaki Sauce
p464
aVBreads & Buns - Croutons
p465
aVBody Sprays and Mists
p466
aVCandy - Peanut Butter Flavored Candy, Cups & Bars
p467
aVWomen's Socks - Casual Socks
p468
aVJuice or Drink - Coconut Juice
p469
aVAmino Acid Supplements - L-Methionine
p470
aVFrozen Appetizers - Popcorn Chicken
p471
aVJam & Jelly - Cherry Flavor
p472
aVJuice or Drink - Pineapple Juice
p473
aVSoda - Energy Drinks
p474
aVFrozen Appetizers - Asian Based
p475
aVFrozen Fruit & Juice - Frozen Fruit
p476
aVCookies & Biscuits - Macaroons & Meringues
p477
aVBaby & Child Supplements - Baby Vitamins
p478
aVHerbal Supplements - Powder
p479
aVHerbs & Spices - Oriental & Asian
p480
aVNuts & Snacks - Mixed Nuts & Trail Mix
p481
aVYogurt - Kefir
p482
aVSpecialty Formula Supplements - Pre-Menstrual Support
p483
aVBars - Other Bars
p484
aVHomeopathy - Lotions, Creams and Gels
p485
aVFrozen Appetizers - Stuffed Peppers & Jalapenos
p486
aVChips & Snacks - Tortilla & Corn Chips
p487
aVMinerals - Mineral Combination
p488
aVCheese - Monterey Jack
p489
aVSoup - Dehydrated Soup Mixes & Bases
p490
aVCanned Fruit - Cranberry Sauce
p491
aVCanned Meat - Other Meats
p492
aVCheese - American Cheese
p493
aVPastry - Pastry Shells
p494
aVVitamins - Multi Vitamins
p495
aVDehydrated Dinners & Sides - Other Microwaveable Meals
p496
aVCanned Meat - Turkey In A Can
p497
aVCandy - Marshmallows & Marshmallow Creme
p498
aVFrozen Appetizers - Pierogies
p499
aVDehydrated Dinners & Sides - Asian
p500
aVIce Cream - Fudge Flavor
p501
aVBreakfast & Biscuits - Croissant Sandwiches
p502
aVFish & Seafood - Calamari
p503
aVBaby Food - Formula
p504
aVCrackers - Sandwich Crackers
p505
aVOther Drinks - Kombucha & Other Fermented Beverages
p506
aVSpecialty Formula Supplements - Sleep
p507
aVHealth Care - Ear, Eye & Mouth Care
p508
aVCanned Soup - Bean & Lentil
p509
aVBars - Nutrition & Energy Bars
p510
aVCanned Vegetables - Corn
p511
aVFrozen Appetizers - Sandwiches, Panini's & Pouches
p512
aVSpecialty Formula Supplements - Medicinal Creams and Ointments
p513
aVUSDA - Gourd
p514
aVCanned Meals - Beef Stew & Chili
p515
aVCondiments - Other Sauces
p516
aVPackaged Deli Meats - Pepperoni
p517
aVFrozen Dinners - Meatloaf & Meatball Meals
p518
aVMassaging Preparations
p519
aVCereal - Oatmeal Dry Plain Hot
p520
aVDeli - Pickles
p521
aVFrozen Appetizers - Pork Based
p522
aVBaking Mix - Pancake & Waffle Mix
p523
aVWholesome Snacks - Fruit Squeeze
p524
aVUSDA - Apples
p525
aVCooking Oil - Canola Oil
p526
aVCanned Meals - Pork & Beans
p527
aVSpread - Butter
p528
aVCereal - Multigrain
p529
aVSubs, Sandwiches & Prepared Wraps
p530
aVMilk - Almond Milk Flavored
p531
aVIce Cream - Bars & Sandwiches
p532
aVSalad Dressing - Italian
p533
aVCooking Oil - Peanut Oil
p534
aVCereal - Oat
p535
aVDeli - Chutney
p536
aVTofu - All Types
p537
aVCheese - Dip
p538
aVSport Drinks
p539
aVBaby Food - Pureed Baby Food & Pouches
p540
aVJuice or Drink - Mango Juice
p541
aVRice - Jasmine
p542
aVSpecialty Formula Supplements - Women's Formulas
p543
aVPackaged Fruit & Veg - Other Fruit
p544
aVAntioxidant Supplements - Alpha Lipoic Acid
p545
aVFrozen Appetizers - Mini Burger's & Burger Patties
p546
aVMexican - Tortillas
p547
aVFrozen Dinners - Turkey Based Meals (>= 10 oz)
p548
aVDehydrated Vegetables - Potatoes & Potato Mixes
p549
aVAmino Acid Supplements - L-Arginine
p550
aVDessert Toppings - Food Coloring
p551
aVBaking Additives - Extracts
p552
aVVitamins - Biotin
p553
aVSauces - Wasabi & Horseradish
p554
aVMeat Goods - Canadian Bacon & Sausages
p555
aVSalad Dressing - Mustard
p556
aVFruit Snacks - Cherries
p557
aVCanned Beans - Lima Beans
p558
aVFatty Acid Supplements - DHA
p559
aVCheese - Soft Cheese
p560
aVHerbal Supplements - Herbal Singles
p561
aVCheese - Mozzarella
p562
aVUSDA - Bass
p563
aVBaking Mix - Cake Mix
p564
aVBaking Condiments - Dried Fruit & Nut Mix
p565
aVOther Pastries - Rolls
p566
aVDigestive & Fiber Supplements - Oat Bran
p567
aVCanned Seafood - Salmon
p568
aVLip Preparations
p569
aVDip & Salsa - Spinach & Other Vegetable
p570
aVSnacks - Cheese Puffs
p571
aVSoup - Instant Soups
p572
aVSpecialty Formula Supplements - Thyroid Formula
p573
aVSpecialty Formula Supplements - Kidney/Bladder Formula
p574
aVPasta & Pizza Sauce - Pizza Sauce
p575
aVCanned Beans - Kidney Beans & Red Beans
p576
aVOther Drinks - Other Beverages
p577
aVCat Food - Cat Food Dry
p578
aVSpecialty Formula Supplements - First Aid Treatment
p579
aVDip & Salsa - Fruit Dip
p580
aVFish & Seafood - Crab
p581
aVFrench Fries, Potatoes & Onion Rings
p582
aVFrozen Dinners - Enchiladas & Fajitas
p583
aVDigestive & Fiber Supplements - Colon Cleanse Formulas
p584
aVMen's T-Shirts - Basic
p585
aVOther Grains & Seeds - Flax
p586
aVCookies & Biscuits - Almond & Nut Cookies
p587
aVCheese - Pepper Jack
p588
aVFoot Preparations
p589
aVIce Cream - Peanut Butter
p590
aVCoffee - Substitute & Herbal Coffee
p591
aVCookies & Biscuits - Sandwich Cookies
p592
aVPasta - Vermicelli
p593
aVJam & Jelly - Other Flavor
p594
aVSnacks - Other Snacks
p595
aVCheese - String & Novelty Cheese
p596
aVDigestive & Fiber Supplements - Aloe
p597
aVYogurt - Drinkable
p598
aVBaking Mix - Muffin, Biscuit & Scone Mixes
p599
aVCanned Meals - Other Canned Meals
p600
aVSeasoning - Marinades
p601
aVPackaged Deli Meats - Meat Spreads & Liverwurst
p602
aVVitamins - Folic Acid (Folate, Folacin)
p603
aVOther Drinks - Probiotic Non-Dairy Drinks
p604
aVPasta & Pizza Sauce - Marinara Sauce
p605
aVBreads & Buns - Instant Toast
p606
aVPackaged Fruit & Veg - Potatoes
p607
aVBreakfast & Biscuits - Breakfast Meals and Main Dishes (< 6 oz)
p608
aVHerbs & Spices - Other
p609
aVCooking Oil - Corn Oil
p610
aVCereal - Rice
p611
aVYogurt - Greek
p612
aVCanned Soup - Other
p613
aVSauces - Duck Sauce
p614
aVPlant Based Water - Aloe Water
p615
aVPowdered Drink - Orange & Mandarin Flavor
p616
aVSoda - Orange Flavor
p617
aVIce Cream - Sorbet
p618
aVSpecialty Formula Supplements - Blood Formula
p619
aVSeasoning - Food Additives
p620
aVPasta - Other Styles
p621
aVFrozen Appetizers - Turkey Based
p622
aVSauces - Chilli Sauce
p623
aVBody Soaps and Washes
p624
aVCanned Meals - Chili Sauce
p625
aVCandy - Sugar Free
p626
aVCheese - Gouda
p627
aVYogurt - Classic Fat Free
p628
aVHealth Care - Personal Insect Treatments/Repellents
p629
aVHerbs & Spices - Onion
p630
aVFrozen Appetizers - Vegetable Based
p631
aVFrozen Vegetables - Broccoli, Cauliflower & Mixed Vegetables
p632
aVJuice or Drink - Grapefruit Juice
p633
aVGravy - Prepared Gravy
p634
aVJam & Jelly - Mint Flavor
p635
aVBaking Mix - Brownie & Dessert Mix
p636
aVJuice or Drink - Watermelon Juice
p637
aVCooking Oil - Other Oils
p638
aVFrozen Desserts - Ice Cream Cakes
p639
aVFish & Seafood - Fish Sticks & More
p640
aVPackaged Deli Meats - Beef
p641
aVCandy - Caramels, Toffee & Fudge
p642
aVBaking Mix - Other Dessert Mixes
p643
aVSauces - Curry Sauce
p644
aVFrozen Appetizers - Chicken Nuggets, Wings & Strips
p645
aVCanned Soup - French Onion
p646
aVCrackers - Kids & Promotional Crackers
p647
aVPackaged Fruit & Veg - Sea Vegetables
p648
aVMeat Goods - Ribs
p649
aVDeodorants (Underarm)
p650
aVCondiments - Chicken Wing Sauce
p651
aVNoodles - Instant Noodle
p652
aVIced Tea - Other Flavor
p653
aVSauces - Soy Sauce
p654
aVFrozen Appetizers - Taquitos
p655
aVDehydrated Vegetables - Beans, Peas, Lentils, Corn & Barley
p656
aVJuice or Drink - Lime Juice
p657
aVFrozen Dinners - Flatbreads, Panini's, Bagels & Burgers
p658
aVJuice or Drink - Pear Juice
p659
aVWaxes
p660
aVMexican - Other Wraps
p661
aVFrozen Bread - Other
p662
aVMilk - Almond Milk Plain
p663
aVYogurt - Greek Fat Free
p664
aVCoffee - Decaffeinated
p665
aVSalad Dressing - French
p666
aVWater - Non Carbonated Plain
p667
aVFatty Acid Supplements - Wheat Germ Oil
p668
aVFrozen Dinners - Other Frozen Meals
p669
aVSyrups & Molasses
p670
aVBreads & Buns - Rye & Pumpernickel
p671
aVSour Cream
p672
aVCookies & Biscuits - Vanilla & Sugar Cookies
p673
aVVitamins - Pyridoxal-5-Phosphate (P-5-P)
p674
aVHealth & Recovery - Recovery Mixes & Powders
p675
aVFrozen Dinners - Beef Based Meals (>= 10 oz)
p676
aVMinerals - Zinc
p677
aVFrozen Appetizers - Corndogs
p678
aVSalad Dressing - Dry Salad Dressing Mix
p679
aVChips & Snacks - Wheat & Multigrain Snacks
p680
aVPowdered Drink - Grape & Grapefruit Flavor
p681
aVCheese - Cheese Platter
p682
aVMexican - Cactus
p683
aVFrozen Appetizers - Potato Skins & Baked Potatoes
p684
aVAmino Acid Supplements - L-Tyrosine
p685
aVIce Cream - Cookie & Cake Flavor
p686
aVPancakes
p687
aVCondiments - Barbecue Sauce
p688
aVCheese - Cottage Cheese Plain
p689
aVPasta & Pizza Sauce - Flavored with Mushroom
p690
aVBaking Mix - Mincemeat (Pies)
p691
aVPackaged Fruit & Veg - Carrots, Cauliflower, Celery & Lettuce
p692
aVMilk - Specially Fortified
p693
aVJuice or Drink - Sparkling Fruit Juice
p694
aVPreshave Preparations
p695
aVSpecialty Formula Supplements - Reishi/Shiitake/Maitake Mushrooms Pill
p696
aVPowdered Drink - Mixed Fruit Flavor
p697
aVWater - Sparkling & Carbonated Flavored
p698
aVSpecialty Formula Supplements - Weight Loss
p699
aVHealth Care - Decongestive, Cough, Cold & Flu Relief
p700
aVPackaged Fruit & Veg - Other Vegetables
p701
aVDeli - Capers
p702
aVNoodles - Egg & Oriental Noodles
p703
aVJuice or Drink - Pomegranate Juice
p704
aVFrozen Dinners - Pies
p705
aVHerbs & Spices - Cloves & Mustard Seeds
p706
aVMen's Underwear - Briefs
p707
aVCanned Soup - Cheese
p708
aVCandy - Hard
p709
aVCereal - Sprouted
p710
aVCandy - Candy Bar
p711
aVSpecialty Formula Supplements - Respiratory Formula
p712
aVCereal - Bran
p713
aVMeat Goods - Meatballs
p714
aVCanned Vegetables - Carrots
p715
aVDessert Toppings - Cooking Chocolate
p716
aVIced Tea - Decaffeinated
p717
aVCheese - Shredded & Grated Mexican Style
p718
aVSalad Dressing - Bacon Bits
p719
aVSpecialty Formula Supplements - Circulation
p720
aVPackaged Fruit & Veg - Vegetable Mixes
p721
aVUSDA - Veal
p722
aVSpecialty Formula Supplements - Mood Formulas
p723
aVSoy Nut Butter
p724
aVAmino Acid Supplements - L-Cystine
p725
aVSpecialty Formula Supplements - Blood Sugar Supplements
p726
aVIce Cream - Ice Pops & Juice Bars
p727
aVNuts & Snacks - Popcorn (Unpopped)
p728
aVCakes & Snacks - Other Cake Novelties
p729
aVBreads & Buns - Sourdough
p730
aVFrozen Dinners - Turkey Based Meals and Main Dishes (< 6 oz)
p731
aVCanned Fruit - Apples
p732
aVPasta & Pizza Sauce - Italian, Traditional Sauce
p733
aVMexican - Taco Seasoning & Kit
p734
aVBreads & Buns - Garlic Bread
p735
aVSpecialty Formula Supplements - Healthy Aging
p736
aVSauces - Sweet & Sour Sauce
p737
aVFruit Snacks - Apples
p738
aVSalad Dressing - Caesar
p739
aVSpecialty Formula Supplements - Melatonin
p740
aVBreads & Buns - Pizza Bases & Bread
p741
aVCereal - Oats Dry Plain Hot
p742
aVHealth & Recovery - Energy Shots
p743
aVDessert Toppings - Cocoa
p744
aVSoda - Other Soda
p745
aVHomeopathy - Homeopathic, Miscellaneous
p746
aVCanned Soup - Pasta & Noodles
p747
aVAntioxidant Supplements - Beta Carotenes
p748
aVSpecialty Formula Supplements - Energy Formulas
p749
aVCanned Beans - Pinto Beans
p750
aVCanned Tuna - Tuna in Water
p751
aVAmino Acid Supplements - L-Glutamine
p752
aVCanned Fruit - Parfait & Mixed Fruit Cups
p753
aVBreads & Buns - Pita & Pocket Bread
p754
aVSkin Care Preparations Sets & Kits
p755
aVChildcare - Other
p756
aVSnacks - Rice Cakes
p757
aVHot Dogs & Brats - Maple Sausages
p758
aVFrozen Pizza - Pepperoni & Other Meats
p759
aVMen's Underwear - Boxers
p760
aVCanned Beans - Butter Beans
p761
aVCanned Fruit - Pineapple
p762
aVPowdered Drink - Cherry Flavor
p763
aVPasta - Shell Shaped
p764
aVCheese - Goat's Cheese
p765
aVCanned Fruit - Mixed Fruit Salad
p766
aVPowdered Drink - Lemonade Flavor
p767
aVMilk - Other Dairy Beverage
p768
aVWeight Control - Meal Replacement Drinks
p769
aVCoffee - Other
p770
aVCanned Soup - Chowder & Bisque
p771
aVBreads & Buns - White Bread
p772
aVWipes
p773
aVSpecialty Formula Supplements - Miscellaneous
p774
aVAmino Acid Supplements - Miscellaneous
p775
aVBread Mix - Breadcrumbs & Batter
p776
aVGreen Supplements - Green Formulas
p777
aVSoda - Lemonade
p778
aVMexican - Tacos
p779
aVSugar - Natural & Organic Sugar
p780
aVBulk Breakfast - Other Nut Butters
p781
aVCheese - Provolone
p782
aVHot Dogs & Brats - Bratwurst
p783
aVCanned Tuna - Other
p784
aVPasta - Rigatoni
p785
aVBaby Food - Crackers & Biscuits
p786
aVCanned Soup - Sausage & Other Meats
p787
aVIce Cream - Gelato
p788
aVUSDA - Prickly Pears
p789
aVJuice or Drink - Apple Juice
p790
aVAlcohol - Cider
p791
aVMen's Socks - Casual Socks
p792
aVFrozen Appetizers - Mexican Style Entrees
p793
aVSpecialty Formula Supplements - Liver Support
p794
aVSpecialty Formula Supplements - Men's Formulas
p795
aVAlcohol - Other
p796
aVNuts & Snacks - Cashews
p797
aVOther Drinks - Chia Beverages
p798
aVSides - Prepared Entree
p799
aVSpecialty Formula Supplements - Immune System Formula
p800
aVPowdered Drink - Spiced Cider
p801
aVSpecialty Formula Supplements - Yeast Products
p802
aVHomeopathy - Cold/Flu Remedies
p803
aVHerbs & Spices - Tarragon & Sage
p804
aVPowdered Drink - Other Fruit Flavor
p805
aVFrozen Dinners - Vegetable Based Meals (>= 10 oz)
p806
aVDog Food - Dog Food Wet
p807
aVJam & Jelly - Raspberry Flavor
p808
aVAlcohol - Malt Beverages
p809
aVFrozen Bread - Garlic Bread
p810
aVIce Cream - Rocky Road
p811
aVPasta & Pizza Sauce - Flavored with Cheese
p812
aVHoney
p813
aVSeasoning - Tenderizer's
p814
aVDessert Toppings - Chocolate Chips
p815
aVCrackers - Oyster & Nonsalted
p816
aVFatty Acid Supplements - Fish Oil
p817
aVJuice or Drink - Fruit Smoothie
p818
aVVitamins - Niacinamide
p819
aVPeanut Butter
p820
aVCheese - Cheddar Cheese
p821
aVCanned Vegetables - Green Beans
p822
aVOther Grains & Seeds - Other
p823
aVBulk Baking - Sugar & Sweeteners
p824
aVCooking Sauces - Clam Sauce & Scampi
p825
aVAmino Acid Supplements - L-Lysine
p826
aVCuticle Softeners
p827
aVCanned Meat - Chicken In A Can
p828
aVNuts & Snacks - Pumpkin Seeds
p829
aVCondiments - Steak Sauce
p830
aVNuts & Snacks - Other Nuts, Seeds & Snacks
p831
aVCanned Vegetables - Mushrooms
p832
aVFrozen Appetizers - Cheese Sticks, Nuggets & Snacks
p833
aVSpecialty Formula Supplements - Phosphatidyl Choline/ Lecithin
p834
aVSalad Dressing - Sesame
p835
aVCheese - Cottage Cheese Flavored
p836
aVJam & Jelly - Grape Flavor
p837
aVSpecialty Formula Supplements - Zinc Lozenges
p838
aVCandy - Promotional & Seasonal
p839
aVHot Dogs & Brats - Polish Sausage
p840
aVNuts & Snacks - Popcorn (Popped)
p841
aVJuice or Drink - Aloe Juice
p842
aVDip & Salsa - Seafood, Crab & Shrimp Cocktail
p843
aVBreads & Buns - Whole Wheat & Wheat Bread
p844
aVUSDA - Sugar Apples
p845
aVCheese - Cheese Sticks
p846
aVJuice or Drink - Acai Juice
p847
aVBaking Mix - Cookie Mix
p848
aVVitamins - Vitamin B1 (Thiamine)
p849
aVSalad Dressing - Cheese
p850
aVGels & Pectins - Gelatin Mixes & Desserts
p851
aVHerbs & Spices - Mixed Herbs, Spice Rubs & Flavor Blends
p852
aVSpecialty Formula Supplements - Inflammation
p853
aVJam & Jelly - Orange Flavor
p854
aVSpecialty Formula Supplements - Apple Cider Vinegar
p855
aVSeasoning - Salad & Vegetable Seasoning
p856
aVCanned Soup - Chicken & Turkey
p857
aVMilk - Whole Milk
p858
aVCondiments - Ketchup
p859
aVSnacks - Rice Chips
p860
aVSeasoning - Sauce Mixes
p861
aVNuts & Snacks - Macadamia Nut
p862
aVSpread - Shortening & Lard
p863
aVLiquid Water Enhancer - Fruit Flavor Mix
p864
aVSpecialty Formula Supplements - Sexual Health
p865
aVSpecialty Formula Supplements - Cholesterol Support
p866
aVAlcohol - Accessories
p867
aVPackaged Fruit & Veg - Potatoes Ready to Heat
p868
aVNuts & Snacks - Pine Nut
p869
aVBaby Food - Cereal Bars & Cereal Snacks
p870
aVBaby Food - Meals
p871
aVDessert Toppings - Frosting and Icing
p872
aVSeasoning - Seasoning Mix (Chilli, Sloppy Joes & Stew)
p873
aVToothbrushes
p874
aVMinerals - Calcium
p875
aVEgg Substitutes
p876
aVHomeopathy - Liquids and Tinctures
p877
aVHealth & Recovery - Nutrition Drink
p878
aVHerbs & Spices - Paprika
p879
aVFrozen Appetizers - Soy Burgers & Meatless Entrees
p880
aVHalf and Half
p881
aVFruit Snacks - Bananas
p882
aVCanned Soup - Vegetable
p883
aVFish & Seafood - Shrimp
p884
aVBaby Food - Puffs
p885
aVFrozen Appetizers - Other Frozen Entrees
p886
aVBreads & Buns - English Muffin
p887
aVPasta - Gnocchi
p888
aVJam & Jelly - Apricot Flavor
p889
aVSugar - Other Sugar
p890
aVVitamins - Gelatin Caps
p891
aVCakes & Snacks - Snack Bars & Finger Cakes
p892
aVPoultry - Other Turkey Cuts
p893
aVCanned Soup - Minestrone
p894
aVFrozen Appetizers - Egg Rolls & Blintzes
p895
aVCandy - Nougat & Marzipan
p896
aVUSDA - Peanuts
p897
aVDeli - Tapenade & Other Vegetable Spreads
p898
aVDeli - Sun Dried Tomatoes
p899
aVIce Cream - Raspberry Flavor
p900
aVDeli - Bruschetta
p901
aVSpread - Margarine
p902
aVBaby Food - Yogurt
p903
aVYogurt - Classic Low Fat
p904
aVFish & Seafood - Other Shellfish
p905
aVFrozen Appetizers - Beef Based
p906
aVHealth & Recovery - Other Drinks, Powders & Supplements
p907
aVPastry - Pastry Fillings
p908
aVCondiments - Cheese Sauce
p909
aVCondiments - Worcestershire Sauce
p910
aVCrackers - Crisps & Wheat Based Crackers
p911
aVCanned Seafood - Gefilte Fish & Whitefish
p912
aVDehydrated Dinners & Sides - Other
p913
aVCanned Meals - Chili No Beans
p914
aVSuntan Gels, Creams and Liquids
p915
aVHerbs & Spices - Garlic Powder
p916
aVSalad Dressing - Salad Toppings
p917
aVAntioxidant Supplements - CoQ-10
p918
aVPlant Based Water - Cactus Water
p919
aVSpecialty Formula Supplements - Stress Formulas
p920
aVCanned Meals - Chili With Beans
p921
aVGravy - Gravy Mix
p922
aVChips & Snacks - Veggie Snacks
p923
aVSeasoning - All Purpose Seasoning Mix
p924
aVHair Conditioners
p925
aVCandy - Assorted/Variety Pack
p926
aVPasta - Angel Hair & Noodle Style
p927
aVIce Cream - Butter Pecan Flavor
p928
aVCakes & Snacks - Brownies
p929
aVAntioxidant Supplements - Miscellaneous
p930
aVCandy - Soft & Gummies
p931
aVCrackers - Other
p932
aVUSDA - Rose Apples
p933
aVCereal - Other Cold Cereal
p934
aVSpecialty Formula Supplements - Hair Skin Nails
p935
aVIce Cream - Frozen Yogurt
p936
aVExfoliants
p937
aVCanned Vegetables - Sauerkraut, Cabbage, Onions & Beets
p938
aVFrozen Dinners - Soups
p939
aVSpecialty Formula Supplements - Brain/Neurological/Memory
p940
aVHerbs & Spices - Bay Leaves & Saffron
p941
aVCheese - Shredded & Grated Cheese Blend
p942
aVCanned Seafood - Sardines
p943
aVSnacks - Pork Flavor
p944
aVIce Cream - Other Flavor & Novelties
p945
aVMeat Goods - Bacon and Turkey Bacon
p946
aVSugar - Powdered Sugar
p947
aVHealth Care - Sleep Aids
p948
aVDog Food - Dog Food Dry
p949
aVSalad Dressing - Blue Cheese
p950
aVBaby Monitors - Prenatal
p951
aVFrozen Pizza - Pizza Snacks & Calzone's
p952
aVSpecialty Formula Supplements - Adrenal Formulas
p953
aVBreads & Buns - Flatbreads
p954
aVOther Nut & Seed Butters & Spreads
p955
aVPasta - Couscous
p956
aVCanned Soup - Meatball
p957
aVHealth & Recovery - Protein Mixes & Powders
p958
aVSeasoning - Chicken Seasoning
p959
aVFrozen Dinners - Beef Based Main Dish (6 to 9.99 oz)
p960
aVCheese - Alternative/Non-Dairy
p961
aVMilk - Goat's Milk
p962
aVJuice or Drink - Mixed Berry Juice
p963
aVMexican - Fajita Seasoning & Kit
p964
aVCanned Beans - Baked Beans
p965
aVJuice or Drink - Lemon Juice
p966
aVCandy - Sour & Tart
p967
aVIce Cream - Mixed
p968
aVCanned Soup - Beef
p969
aVAlcohol - Malt Liquor
p970
aVLiquid Water Enhancer - Other
p971
aVBreads & Buns - Breadsticks
p972
aVCoffee - Whole Coffee Beans
p973
aVCanned Soup - Broths & Stocks
p974
aVDip & Salsa - Ranch
p975
aVMen's Socks - Heavy Duty Socks
p976
aVPet Supplements - All Pets
p977
aVDigestive & Fiber Supplements - Acidophilus
p978
aVVitamins - Vitamin B12 (Cobalamin)
p979
aVLotions, Oils, Powders and Creams
p980
aVNuts & Snacks - Almonds
p981
aVCakes & Snacks - Donuts, Coffee Cakes & Danishes
p982
aVCandy - Taffy
p983
aVAlcohol - All Beer
p984
aVBreakfast & Biscuits - Biscuit Sandwiches
p985
aVFrozen Appetizers - Rice Based
p986
aVPackaged Fruit & Veg - Apples, Oranges, Grapefruits & Berries
p987
aVHerbal Supplements - Herb Lozenges, Sprays
p988
aVJuice or Drink - Vegetable Juice
p989
aVHot Dogs & Brats - Franks
p990
aVPrepared Egg Products
p991
aVCanned Vegetables - Asparagus, Spinach, Artichokes & Okra
p992
aVCanned Fruit - Peaches
p993
aVVitamins - Vitamin B6 (Pyroxidine)
p994
aVDigestive & Fiber Supplements - Miscellaneous
p995
aVOther Meats - Beef
p996
aVAgave Nectar
p997
aVSpecialty Formula Supplements - Heart Formula
p998
aVDeli - Jalapeno Peppers
p999
aVRice - Rice Mixes
p1000
aVPackaged Fruit & Veg - Fruit & Vegetable Spray & Wash
p1001
aVJuice or Drink - Beverage Concentrates
p1002
aVFrozen Dinners - Chicken Based Meals (>= 10 oz)
p1003
aVChocolate - Assorted Chocolate
p1004
aVCooking Sauces - BBQ & Grilling Sauces
p1005
aVCookies & Biscuits - Assorted
p1006
aVCondiments - Chilli or Hot Sauce
p1007
aVCanned Meat - Sausage In A Can
p1008
aVHealth Care - Skin Conditions
p1009
aVChips & Snacks - Potato Chips & Potato Snacks
p1010
aVSpecialty Formula Supplements - Eye Formulas
p1011
aVBreads & Buns - Multigrain Bread
p1012
aVCookies & Biscuits - Ginger & Gingerbread
p1013
aVSeasoning - Fry & Baking Mixes
p1014
aVVitamins - Rutin
p1015
aVSugar - Brown Sugar
p1016
aVSauces - Mexican Style Sauces
p1017
aVGardening - Seeds
p1018
aVCanned Beans - Navy Beans
p1019
aVCheese - Other Cheese
p1020
aVWater - Sparkling & Carbonated Plain
p1021
aVChocolate - Chocolate Bars & Confection
p1022
aVChewing Gum - Bubble Gum
p1023
aVUSDA - Mackerel
p1024
aVSour Cream, Fat Free
p1025
aVJam & Jelly - Apple Flavor
p1026
aVCookies & Biscuits - Cakes & Bars
p1027
aVBaby Wipes, Swabs and Cotton Balls
p1028
aVCrackers - Crackers & Dip
p1029
aVChewing Gum - All Flavors
p1030
aVMeal Replacement Supplements - Protein Powders
p1031
aVJam & Jelly - Peach Flavor
p1032
aVAromatherapy - Other Scents
p1033
aVPasta - Spring Roll, Wonton & Egg Roll Wrappers
p1034
aVCanned Meat - Luncheon
p1035
aVFruit Snacks - Other
p1036
aVClothing - Hand Bags
p1037
aVSoup - Miso
p1038
atp1039
Rp1040
.