c__builtin__
set
p0
((lp1
VFrozen Appetizers - Pierogies
p2
aVFrozen Appetizers - Other Frozen Entrees
p3
aVSpecialty Formula Supplements - Auto-Immune Support
p4
aVBreakfast & Biscuits - Other Breakfast Sandwiches
p5
aVFrozen Desserts - Pies & Cheesecake
p6
aVHomeopathy - Miscellaneous
p7
aVMilk Additives - Liquid Non-dairy Creamers
p8
aVHair Dyes, Lighteners and Other Coloring Preparations
p9
aVHealth & Recovery - Recovery Drinks
p10
aVRice - White
p11
aVRice - Brown & Wild
p12
aVMinerals - Calcium
p13
aVFrozen Pizza - Cheese
p14
aVSpecialty Formula Supplements - Urinary Tract
p15
aVFacial Cleansing Preparations
p16
aVHerbs & Spices - Nutmeg & Cinnamon
p17
aVSeasoning - Salt
p18
aVDigestive & Fiber Supplements - Digestive Aids
p19
aVPasta - Tortellini & Ravioli
p20
aVIced Tea - Lemon Flavor
p21
aVTea Bags - Herbal
p22
aVLunch Snacks - Lunchables
p23
aVSeasoning - Salt Substitute
p24
aVCheese - Cheese Slices & Singles
p25
aVHealth Care - Other Healthcare
p26
aVAmino Acid Supplements - L-Taurine
p27
aVVitamins - Vitamin B Complex
p28
aVFrozen Pizza - Other
p29
aVClothing - Organic & Fair Trade Clothing
p30
aVSugar - Plain
p31
aVFatty Acid Supplements - Miscellaneous
p32
aVSpecialty Formula Supplements - Pain
p33
aVSalad Dressing - Mayonnaise
p34
aVHazelnut Butter
p35
aVCanned Meat - Beef In A Can
p36
aVSnacks - Rice Snacks
p37
aVCooking Oil - Olive Oil
p38
aVHerbs & Spices - Vanilla
p39
aVCandy - Other
p40
aVDigestive & Fiber Supplements - Enzymes
p41
aVCondiments - Other Sauces
p42
aVCereal - Granola
p43
aVDessert Toppings - Baking Decorations
p44
aVVitamins - Vitamin B2 (Riboflavin)
p45
aVCakes & Snacks - Pies
p46
aVNuts & Snacks - Yogurt/Chocolate Covered Nuts or Fruit
p47
aVMinerals - Molybdenum
p48
aVVitamins - Vitamin B5 (Pantothenic acid)
p49
aVCandy - Licorice & Twists
p50
aVFrozen Appetizers - Seafood Based
p51
aVBars - Granola & Trail Mix Bars
p52
aVBreads & Buns - Other Bread
p53
aVGrooming & First Aid - Baby Care Kit
p54
aVSpecialty Formula Supplements - Allergy/Hay Fever
p55
aVSeasoning - Bouillon
p56
aVSauces - Soy Sauce
p57
aVBreads & Buns - Sprouted
p58
aVFace Creams and Lotions
p59
aVFruit Snacks - Mixed
p60
aVCanned Tomatoes - Diced & Crushed
p61
aVCereal - Wheat
p62
aVCanned Soup - Cream Of
p63
aVDigestive & Fiber Supplements - Pro-Biotics
p64
aVCleaning Supplies - Room Fresheners & Deoderizers
p65
aVBaking Condiments - Coconut
p66
aVBaby & Child Supplements - Children's Vitamins
p67
aVSugar - Sugar Cubes
p68
aVSpecialty Formula Supplements - Glandulars
p69
aVDeli - Quiche & Other Prepared Deli Meals
p70
aVDip & Salsa - Caramel & Chocolate
p71
aVSnacks - Rice Cakes
p72
aVCrackers - Crackerbread
p73
aVLiquid Water Enhancer - Fruit Flavor Mix
p74
aVSeasoning - Dip Mixes
p75
aVPudding - Pudding Mix
p76
aVChips & Snacks - Veggie Snacks
p77
aVDigestive & Fiber Supplements - Fiber
p78
aVSalad Dressing - Blue Cheese
p79
aVPowdered Drink - Instant Cocoa & Flavored or Malted Milk
p80
aVSpecialty Formula Supplements - Bee Products
p81
aVCoffee - Flavored Coffee
p82
aVDog Food - Dog Treats
p83
aVGels & Pectins - Fruit Gelatin & Gelatin Cups
p84
aVGrooming & First Aid - Diaper Rash Treatment
p85
aVPasta - Rotini
p86
aVHerbs & Spices - Pepper & Garlic
p87
aVCereal - Oatmeal Dry Flavored Hot
p88
aVPasta & Pizza Sauce - Vegetable Based Sauce
p89
aVPackaged Deli Meats - Salami & Cured Meats
p90
aVShampoos (Including 2 in 1 Shampoo and Conditioner)
p91
aVCandy - Lollipops
p92
aVCanned Tomatoes - Chopped & Sliced
p93
aVJam & Jelly - Blueberry Flavor
p94
aVCookies & Biscuits - European Cookies & Biscuits
p95
aVBaby Shampoos
p96
aVSalad Dressing - Ranch
p97
aVSpecialty Formula Supplements - Respiratory Formula
p98
aVFrozen Appetizers - Meatball Entrees
p99
aVCookies & Biscuits - Wafers
p100
aVBreads & Buns - Sweet Breads
p101
aVSpread - Vegetable Oil Spreads
p102
aVAlmond Butter
p103
aVOther Meats - Soy & Vegetarian Options
p104
aVPasta - Elbows & Macaroni
p105
aVCanned Vegetables - Other Vegetables
p106
aVCookies & Biscuits - Oatmeal & Granola
p107
aVDeli - Pickles
p108
aVGrooming & First Aid - Nasal Aspirator
p109
aVFrozen Dinners - Pasta Meals
p110
aVPoultry - Chicken
p111
aVApple Butter
p112
aVCakes & Snacks - Cupcakes
p113
aVIce Cream - Sundae, Sugar Cones & Ice Cream Cones
p114
aVFruit Snacks - Mango
p115
aVChips & Snacks - Pretzels
p116
aVJuice or Drink - Prune Juice
p117
aVSnacks - Meat Sticks & Jerky
p118
aVCandy - Peanut Butter Flavored Candy, Cups & Bars
p119
aVPasta - Barley, Quinoa & Other Grains
p120
aVCereal - Corn
p121
aVFatty Acid Supplements - Cod Liver Oil
p122
aVSpecialty Formula Supplements - Anxiety/Sleep
p123
aVCream, Flavored & Whipping Creams
p124
aVCondiments - Asian
p125
aVJam & Jelly - Apricot Flavor
p126
aVTea Bags - All Other Tea
p127
aVBreads & Buns - Raisin, Cinnamon & Fruit Bread
p128
aVFresh Eggs
p129
aVBars - Protein & Recovery Bars
p130
aVHealth Care - Pain Relief
p131
aVBaby Food - Fruit & Vegetable Snacks
p132
aVMilk - Canned & Evaporated
p133
aVCookies & Biscuits - Other
p134
aVJuice or Drink - Grape Juice
p135
aVFrozen Appetizers - Mini Burger's & Burger Patties
p136
aVKitchen Supplies - Cooking Equipment
p137
aVFrozen Dinners - Other Frozen Meals
p138
aVOther Grains & Seeds - Quinoa
p139
aVSpecialty Formula Supplements - Mood Formulas
p140
aVPackaged Deli Meats - Turkey
p141
aVSeasoning - Other Seasoning & Sauce Mixes
p142
aVCanned Vegetables - Peas
p143
aVPasta - Farfalle
p144
aVBaking Additives - Extracts
p145
aVCoffee - Instant
p146
aVSeasoning - Tenderizer's
p147
aVFrozen Dinners - Burritos
p148
aVCookies & Biscuits - Peanut Butter
p149
aVAlcohol - Wine
p150
aVFish & Seafood - Fish Fillets
p151
aVBath Oils, Salts and Other Bath Additives
p152
aVSauces - Peanut Sauce
p153
aVPackaged Deli Meats - Bologna & Mortadella
p154
aVNoodles - Instant Noodle
p155
aVWholesome Snacks - Fruit Bars
p156
aVCrackers - Plain
p157
aVCheese - Parmesan & Romano
p158
aVCooking Sauces - Cooking Wines, Sherry, Vinegar
p159
aVPastry - Pastry Fillings
p160
aVOther Pastries - Toaster Pastries
p161
aVPasta - Spaghetti
p162
aVDeli - Peppers
p163
aVSnacks - Party & Snack Packs
p164
aVSoup - Prepared Soups
p165
aVDip & Salsa - Onion, Vegetable, Bean & Guacamole Dip
p166
aVGardening - Miscellaneous
p167
aVMen's Underwear - Under Shirts
p168
aVAmino Acid Supplements - Amino Acid Combinations
p169
aVCoffee - Ground Coffee
p170
aVBulk Baking - Other
p171
aVCheese - Soft Cheese
p172
aVSour Cream
p173
aVMen's Underwear - Boxer Briefs
p174
aVHerbs & Spices - Cumin & Turmeric
p175
aVSpecialty Formula Supplements - Bone and Joint Formula
p176
aVSnacks - Bagel & Pita Chips
p177
aVMilk - Coconut Milk Plain
p178
aVDeli - Other Deli Goods
p179
aVPackaged Deli Meats - Ham
p180
aVBars - Breakfast Bars
p181
aVCooking Oil - Corn Oil
p182
aVApple Sauce
p183
aVSugar - Sugar Substitutes & Sweeteners
p184
aVHair Styling Preparations
p185
aVVitamins - Vitamin B3 (Niacin)
p186
aVCooking Oil - Vegetable Oil
p187
aVDessert Toppings - Other Dessert Toppings
p188
aVFrench Toast
p189
aVEye Lotion and Cream
p190
aVAmino Acid Supplements - L-Theanine
p191
aVCooking Sauces - Other
p192
aVAmino Acid Supplements - L-Glutathione
p193
aVDeli - Olives
p194
aVSauces - Other Ethnic & Oriental Sauce
p195
aVSpecialty Formula Supplements - Vitamin/Mineral Combination
p196
aVDeli - Relish
p197
aVFrozen Fruit & Juice - Frozen Fruit
p198
aVIce Cream - Cake, Bites & Other Novelties
p199
aVAromatherapy - Aromatherapy Oils
p200
aVBaby Food - Pureed Baby Food & Pouches
p201
aVLiquid Water Enhancer - Tea Mix
p202
aVSauces - Curry Paste
p203
aVSpecialty Formula Supplements - Cholesterol/Blood Pressure
p204
aVBody Creams and Lotions
p205
aVMilk - Flavored
p206
aVMinerals - Potassium (K+)
p207
aVNuts & Snacks - Peanuts
p208
aVCheese - Ricotta
p209
aVJam & Jelly - Orange Flavor
p210
aVCanned Meat - Ham In A Can
p211
aVCakes & Snacks - Cakes & Loaves
p212
aVJam & Jelly - Strawberry Flavor
p213
aVCheese - Cream Cheese
p214
aVWaffles
p215
aVPasta - Fettuccine
p216
aVSpecialty Formula Supplements - Blood Sugar Supplements
p217
aVYogurt - Classic
p218
aVVitamins - Vitamin D
p219
aVVitamins - Vitamin E
p220
aVVitamins - Vitamin C
p221
aVCandy - Chewy
p222
aVVitamins - Vitamin K
p223
aVFrozen Bread - Bread Rolls
p224
aVPowdered Drink - Iced Tea & Tea Mixes
p225
aVHealth & Recovery - Protein Drinks
p226
aVPowdered Drink - Cappuccino & Coffee Mixes
p227
aVBreads & Buns - Croutons
p228
aVHerbs & Spices - Mixed Herbs, Spice Rubs & Flavor Blends
p229
aVWomen's Socks - Casual Socks
p230
aVFrozen Appetizers - Popcorn Chicken
p231
aVSoda - Energy Drinks
p232
aVFrozen Appetizers - Asian Based
p233
aVNuts & Snacks - Mixed Nuts & Trail Mix
p234
aVSpecialty Formula Supplements - Stress Formulas
p235
aVBars - Other Bars
p236
aVHomeopathy - Lotions, Creams and Gels
p237
aVChips & Snacks - Tortilla & Corn Chips
p238
aVMinerals - Mineral Combination
p239
aVSoup - Dehydrated Soup Mixes & Bases
p240
aVFlour - Cornmeal, Corn Starch & All-Purpose Mixes
p241
aVPudding - Pudding
p242
aVFrozen Appetizers - Rice Based
p243
aVCheese - American Cheese
p244
aVPastry - Pastry Shells
p245
aVVitamins - Multi Vitamins
p246
aVCandy - Marshmallows & Marshmallow Creme
p247
aVNuts & Snacks - Corn Snack
p248
aVBreakfast & Biscuits - Croissant Sandwiches
p249
aVCrackers - Sandwich Crackers
p250
aVOther Drinks - Kombucha & Other Fermented Beverages
p251
aVBars - Nutrition & Energy Bars
p252
aVCanned Vegetables - Corn
p253
aVFrozen Appetizers - Sandwiches, Panini's & Pouches
p254
aVMassaging Preparations
p255
aVHealth Care - Decongestive, Cough, Cold & Flu Relief
p256
aVSpread - Butter
p257
aVCereal - Multigrain
p258
aVMilk - Almond Milk Flavored
p259
aVIce Cream - Bars & Sandwiches
p260
aVCereal - Oat
p261
aVCheese - Dip
p262
aVSport Drinks
p263
aVRice - Jasmine
p264
aVSpecialty Formula Supplements - Women's Formulas
p265
aVAntioxidant Supplements - Alpha Lipoic Acid
p266
aVVitamins - Advanced Vitamin Complexes
p267
aVMexican - Tortillas
p268
aVAmino Acid Supplements - L-Arginine
p269
aVCanned Tomatoes - Tomato Sauce Plain
p270
aVHealth Care - Digestive & Detoxifying Treatments
p271
aVMeat Goods - Canadian Bacon & Sausages
p272
aVFruit Snacks - Cherries
p273
aVHot Dogs & Brats - Other
p274
aVHerbal Supplements - Herbal Singles
p275
aVCheese - Mozzarella
p276
aVLip Preparations
p277
aVSpecialty Formula Supplements - Thyroid Formula
p278
aVSpecialty Formula Supplements - Kidney/Bladder Formula
p279
aVCanned Beans - Kidney Beans & Red Beans
p280
aVLotions, Oils, Powders and Creams
p281
aVFrench Fries, Potatoes & Onion Rings
p282
aVFrozen Dinners - Enchiladas & Fajitas
p283
aVAntioxidant Supplements - CoQ-10
p284
aVHome Supplies - Batteries
p285
aVBooks
p286
aVChildcare - Cups, Plates, Bottles, & Utensils
p287
aVCookies & Biscuits - Sandwich Cookies
p288
aVSnacks - Other Snacks
p289
aVCheese - String & Novelty Cheese
p290
aVDigestive & Fiber Supplements - Aloe
p291
aVYogurt - Drinkable
p292
aVAmino Acid Supplements - L-Carnitine
p293
aVCanned Vegetables - Green Beans
p294
aVPasta & Pizza Sauce - Marinara Sauce
p295
aVPackaged Fruit & Veg - Potatoes
p296
aVHerbs & Spices - Other
p297
aVHealth & Recovery - Recovery Mixes & Powders
p298
aVCereal - Rice
p299
aVCanned Soup - Other
p300
aVPlant Based Water - Aloe Water
p301
aVPasta - Other Styles
p302
aVBody Soaps and Washes
p303
aVYogurt - Classic Fat Free
p304
aVHealth Care - Personal Insect Treatments/Repellents
p305
aVHerbs & Spices - Onion
p306
aVAmino Acid Supplements - Miscellaneous
p307
aVJuice or Drink - Grapefruit Juice
p308
aVFish & Seafood - Fish Sticks & More
p309
aVCandy - Caramels, Toffee & Fudge
p310
aVHomeopathy - Cold/Flu Remedies
p311
aVFrozen Appetizers - Chicken Nuggets, Wings & Strips
p312
aVDeodorants (Underarm)
p313
aVCondiments - Chicken Wing Sauce
p314
aVFrozen Appetizers - Egg Rolls & Blintzes
p315
aVIced Tea - Other Flavor
p316
aVFrozen Appetizers - Taquitos
p317
aVDehydrated Vegetables - Beans, Peas, Lentils, Corn & Barley
p318
aVMilk - Almond Milk Plain
p319
aVYogurt - Greek Fat Free
p320
aVPasta - Rigatoni
p321
aVSyrups & Molasses
p322
aVCrackers - Crackers & Dip
p323
aVWater - Non Carbonated Plain
p324
aVVitamins - Pyridoxal-5-Phosphate (P-5-P)
p325
aVSpecialty Formula Supplements - Liver Support
p326
aVFrozen Dinners - Beef Based Meals (>= 10 oz)
p327
aVAlcohol - Drink Mixes & Rimmers
p328
aVAlcohol - All Beer
p329
aVMilk Additives - Liquid Flavored Creamers
p330
aVFrozen Appetizers - Potato Skins & Baked Potatoes
p331
aVAmino Acid Supplements - L-Tyrosine
p332
aVIce Cream - Cookie & Cake Flavor
p333
aVCondiments - Barbecue Sauce
p334
aVCheese - Cottage Cheese Plain
p335
aVPowdered Drink - Mixed Fruit Flavor
p336
aVSpecialty Formula Supplements - Weight Loss
p337
aVMen's Socks - Casual Socks
p338
aVNoodles - Egg & Oriental Noodles
p339
aVFrozen Dinners - Pies
p340
aVCandy - Hard
p341
aVCereal - Sprouted
p342
aVCereal - Bran
p343
aVSalad Dressing - Bacon Bits
p344
aVPackaged Fruit & Veg - Vegetable Mixes
p345
aVSauces - Chilli Paste
p346
aVSoy Nut Butter
p347
aVAmino Acid Supplements - L-Cystine
p348
aVFrozen Pizza - Bread & Single Serve Pizza
p349
aVCereal - For Kids
p350
aVCakes & Snacks - Other Cake Novelties
p351
aVCookies & Biscuits - Fruit Filled & Flavored
p352
aVHomeopathy - Homeopathic, Miscellaneous
p353
aVCanned Soup - Pasta & Noodles
p354
aVJuice or Drink - Mixed Fruit Juice
p355
aVAmino Acid Supplements - L-Glutamine
p356
aVSkin Care Preparations Sets & Kits
p357
aVChildcare - Other
p358
aVBreakfast & Biscuits - Biscuit Sandwiches
p359
aVCheese - Goat's Cheese
p360
aVMilk - Other Dairy Beverage
p361
aVCoffee - Other
p362
aVSpecialty Formula Supplements - Miscellaneous
p363
aVBread Mix - Breadcrumbs & Batter
p364
aVSoda - Lemonade
p365
aVMexican - Tacos
p366
aVSugar - Natural & Organic Sugar
p367
aVPasta - Linguine
p368
aVSides - Prepared Entree
p369
aVCanned Meat - Pate & Meat Spreads
p370
aVJuice or Drink - Apple Juice
p371
aVAlcohol - Cider
p372
aVDeli - Capers
p373
aVFrozen Appetizers - Mexican Style Entrees
p374
aVVitamins - Vitamin B12 (Cobalamin)
p375
aVFrozen Dinners - Chicken Based Meals (>= 10 oz)
p376
aVSpecialty Formula Supplements - Men's Formulas
p377
aVCanned Soup - Meatball
p378
aVSpecialty Formula Supplements - Immune System Formula
p379
aVJam & Jelly - Raspberry Flavor
p380
aVAlcohol - Malt Beverages
p381
aVFrozen Bread - Garlic Bread
p382
aVOther Meats - Beef
p383
aVHoney
p384
aVDessert Toppings - Chocolate Chips
p385
aVFatty Acid Supplements - Fish Oil
p386
aVVitamins - Niacinamide
p387
aVPeanut Butter
p388
aVCheese - Cheddar Cheese
p389
aVSugar - Other Sugar
p390
aVFrozen Appetizers - Vegetable Based
p391
aVBulk Baking - Sugar & Sweeteners
p392
aVAmino Acid Supplements - L-Lysine
p393
aVCuticle Softeners
p394
aVCanned Meat - Chicken In A Can
p395
aVNuts & Snacks - Pumpkin Seeds
p396
aVNuts & Snacks - Other Nuts, Seeds & Snacks
p397
aVFrozen Appetizers - Cheese Sticks, Nuggets & Snacks
p398
aVHerbal Supplements - Herb Lozenges, Sprays
p399
aVNuts & Snacks - Popcorn (Popped)
p400
aVJuice or Drink - Aloe Juice
p401
aVChocolate - Chocolate Bars & Confection
p402
aVBaking Mix - Cookie Mix
p403
aVVitamins - Vitamin B1 (Thiamine)
p404
aVGels & Pectins - Gelatin Mixes & Desserts
p405
aVSpecialty Formula Supplements - Brain/Neurological/Memory
p406
aVPasta - Angel Hair & Noodle Style
p407
aVTea Bags - Black
p408
aVCanned Fruit - Mandarins & Oranges
p409
aVJuice or Drink - Orange Juice
p410
aVAlcohol - Accessories
p411
aVSeasoning - Food Additives
p412
aVDessert Toppings - Frosting and Icing
p413
aVToothbrushes
p414
aVCondiments - Ketchup
p415
aVHomeopathy - Liquids and Tinctures
p416
aVFrozen Appetizers - Soy Burgers & Meatless Entrees
p417
aVCookies & Biscuits - Assorted
p418
aVFruit Snacks - Bananas
p419
aVBreads & Buns - English Muffin
p420
aVPasta & Pizza Sauce - Other Sauces
p421
aVVitamins - Gelatin Caps
p422
aVDeli - Sun Dried Tomatoes
p423
aVSpread - Margarine
p424
aVBaby Food - Yogurt
p425
aVBaking Additives - Baking Powder, Soda & Yeast
p426
aVHealth & Recovery - Other Drinks, Powders & Supplements
p427
aVCleaning Supplies - Household Cleaners
p428
aVCondiments - Cheese Sauce
p429
aVCrackers - Crisps & Wheat Based Crackers
p430
aVCanned Seafood - Gefilte Fish & Whitefish
p431
aVSuntan Gels, Creams and Liquids
p432
aVHerbs & Spices - Garlic Powder
p433
aVPlant Based Water - Coconut Water
p434
aVSeasoning - All Purpose Seasoning Mix
p435
aVHair Conditioners
p436
aVIce Cream - Butter Pecan Flavor
p437
aVAntioxidant Supplements - Miscellaneous
p438
aVCrackers - Other
p439
aVCereal - Other Cold Cereal
p440
aVSpecialty Formula Supplements - Hair Skin Nails
p441
aVIce Cream - Frozen Yogurt
p442
aVCanned Vegetables - Sauerkraut, Cabbage, Onions & Beets
p443
aVIce Cream - Other Flavor & Novelties
p444
aVSugar - Powdered Sugar
p445
aVHealth Care - Sleep Aids
p446
aVSpecialty Formula Supplements - Adrenal Formulas
p447
aVHealth & Recovery - Protein Mixes & Powders
p448
aVSeasoning - Chicken Seasoning
p449
aVFrozen Dinners - Beef Based Main Dish (6 to 9.99 oz)
p450
aVJuice or Drink - Mixed Berry Juice
p451
aVCanned Beans - Baked Beans
p452
aVCandy - Sour & Tart
p453
aVAlcohol - Malt Liquor
p454
aVBreads & Buns - Breadsticks
p455
aVCoffee - Whole Coffee Beans
p456
aVCanned Soup - Broths & Stocks
p457
aVDip & Salsa - Ranch
p458
aVNuts & Snacks - Almonds
p459
aVCandy - Taffy
p460
aVPasta - Shell Shaped
p461
aVJuice or Drink - Vegetable Juice
p462
aVPrepared Egg Products
p463
aVCanned Vegetables - Asparagus, Spinach, Artichokes & Okra
p464
aVVitamins - Vitamin B6 (Pyroxidine)
p465
aVSeasoning - Other Meat Seasoning
p466
aVPasta & Pizza Sauce - Flavored with Cheese
p467
aVWomen's Bags & Wallets - Shoulder Bags
p468
aVSpecialty Formula Supplements - Heart Formula
p469
aVRice - Rice Mixes
p470
aVSpecialty Formula Supplements - Cholesterol Support
p471
aVChocolate - Assorted Chocolate
p472
aVHalf and Half
p473
aVCondiments - Chilli or Hot Sauce
p474
aVCanned Meat - Sausage In A Can
p475
aVChips & Snacks - Potato Chips & Potato Snacks
p476
aVSpecialty Formula Supplements - Eye Formulas
p477
aVSauces - Mexican Style Sauces
p478
aVCheese - Other Cheese
p479
aVBreads & Buns - Whole Wheat & Wheat Bread
p480
aVChewing Gum - Bubble Gum
p481
aVCookies & Biscuits - Cakes & Bars
p482
aVCandy - Soft & Gummies
p483
aVAgave Nectar
p484
aVJam & Jelly - Peach Flavor
p485
aVCookies & Biscuits - Vanilla & Sugar Cookies
p486
aVSugar - Brown Sugar
p487
aVFruit Snacks - Other
p488
aVClothing - Hand Bags
p489
aVFrozen Appetizers - Chicken Based
p490
atp491
Rp492
.