(dp0
S'folic acid vegetable oils'
p1
S'folic acid vegetable oil'
p2
sS'fava beans'
p3
S'fava bean'
p4
sS'macadamia nuts'
p5
S'macadamia nut'
p6
sS'hydrolyzed corn and soy proteins'
p7
S'hydrolyzed corn and soy protein'
p8
sS'bifidus cultures'
p9
S'bifidus culture'
p10
sS'sugar spices'
p11
S'sugar spice'
p12
sS'water and juice concentrates'
p13
S'water and juice concentrate'
p14
sS'raspberry juices'
p15
S'raspberry juice'
p16
sS'vegetable oils'
p17
S'vegetable oil'
p18
sS'monoglycerides with ascorbic acid and citric acid'
p19
S'monoglyceride with ascorbic acid and citric acid'
p20
sS'caseinates'
p21
S'caseinate'
p22
sS'acetylated monoglycerides'
p23
S'acetylated monoglyceride'
p24
sS'glycerol esters of rosin'
p25
S'glycerol ester of rosin'
p26
sS'blue potatoes'
p27
S'blue potato'
p28
sS'organic ground vanilla beans'
p29
S'organic ground vanilla bean'
p30
sS'natural flavos'
p31
S'natural flavo'
p32
sS'morita peppers'
p33
S'morita pepper'
p34
sS'vegetable monoglycerides'
p35
S'vegetable monoglyceride'
p36
sS'kernel and fractionated palm oils'
p37
S'kernel and fractionated palm oil'
p38
sS'chipotle spices'
p39
S'chipotle spice'
p40
sS'california chilis'
p41
S'california chili'
p42
sS'fruit concentrates'
p43
S'fruit concentrate'
p44
sS'selected meat fats'
p45
S'selected meat fat'
p46
sS'mullein leaves'
p47
S'mullein leaf'
p48
sS'paprikas'
p49
S'paprika'
p50
sS'dried shitake mushrooms'
p51
S'dried shitake mushroom'
p52
sS'strawberry and other natural flavors'
p53
S'strawberry and other natural flavor'
p54
sS'palm and shea oils'
p55
S'palm and shea oil'
p56
sS'diced red peppers'
p57
S'diced red pepper'
p58
sS'n&a flavors'
p59
S'n&a flavor'
p60
sS'essential oils of peppermint'
p61
S'essential oil of peppermint'
p62
sS'medium chain triglycerides'
p63
S'medium chain triglyceride'
p64
sS'natural flavoring carrots'
p65
S'natural flavoring carrot'
p66
sS'candied oranges'
p67
S'candied orange'
p68
sS'fire roasted poblano peppers'
p69
S'fire roasted poblano pepper'
p70
sS'figs'
p71
S'fig'
p72
sS'cocoa butter emulsifiers'
p73
S'cocoa butter emulsifier'
p74
sS'organic apricots'
p75
S'organic apricot'
p76
sS'organic roasted soybeans'
p77
S'organic roasted soybean'
p78
sS'clovers'
p79
S'clover'
p80
sS'blueberry bits'
p81
S'blueberry bit'
p82
sS'garlic and natural flavors'
p83
S'garlic and natural flavor'
p84
sS'ancho peppers'
p85
S'ancho pepper'
p86
sS'broad beans'
p87
S'broad bean'
p88
sS'spice extratives'
p89
S'spice extrative'
p90
sS'blue and cheddar cheeses'
p91
S'blue and cheddar cheese'
p92
sS'organic concord grapes'
p93
S'organic concord grape'
p94
sS'white and black sesame seeds'
p95
S'white and black sesame seed'
p96
sS'organic starches'
p97
S'organic starch'
p98
sS'psyllium husks'
p99
S'psyllium husk'
p100
sS'hydrogenated rapeseed and cottonseed oils'
p101
S'hydrogenated rapeseed and cottonseed oil'
p102
sS'chipotle chiles'
p103
S'chipotle chile'
p104
sS'natural chicken flavors'
p105
S'natural chicken flavor'
p106
sS'soybean and rapeseed oils'
p107
S'soybean and rapeseed oil'
p108
sS'red habanero peppers'
p109
S'red habanero pepper'
p110
sS'vegetable gums'
p111
S'vegetable gum'
p112
sS'emulsifying salts'
p113
S'emulsifying salt'
p114
sS'semisweet chocolate chunks'
p115
S'semisweet chocolate chunk'
p116
sS'antioxidantes'
p117
S'antioxidante'
p118
sS'wheat fibers'
p119
S'wheat fiber'
p120
sS'cream and natural flavorings'
p121
S'cream and natural flavoring'
p122
sS'yellow bell peppers'
p123
S'yellow bell pepper'
p124
sS'chocolate flavored flakes'
p125
S'chocolate flavored flake'
p126
sS'dl-alpha-tocopherols'
p127
S'dl-alpha-tocopherol'
p128
sS'potassium and sodium phosphates'
p129
S'potassium and sodium phosphate'
p130
sS'eeg yolks'
p131
S'eeg yolk'
p132
sS'amylases'
p133
S'amylase'
p134
sS'fructo-oligosaccharides'
p135
S'fructo-oligosaccharide'
p136
sS'emulsifier: lecithins'
p137
S'emulsifier: lecithin'
p138
sS'organic peaches'
p139
S'organic peach'
p140
sS'crushed oranges'
p141
S'crushed orange'
p142
sS'whole and ground flax seeds'
p143
S'whole and ground flax seed'
p144
sS'hydrogenated vegetable oils'
p145
S'hydrogenated vegetable oil'
p146
sS'roasted eggplants'
p147
S'roasted eggplant'
p148
sS'milk protein isolates'
p149
S'milk protein isolate'
p150
sS'canola and olive oils'
p151
S'canola and olive oil'
p152
sS'lactic acid esters of mono and diglycerides'
p153
S'lactic acid ester of mono and diglycerides'
p154
sS'extractives of paprika and other spices'
p155
S'extractive of paprika and other spices'
p156
sS'croutons'
p157
S'crouton'
p158
sS'pickled chili peppers'
p159
S'pickled chili pepper'
p160
sS'orange icing fruits'
p161
S'orange icing fruit'
p162
sS'protein isolates'
p163
S'protein isolate'
p164
sS'organic limes'
p165
S'organic lime'
p166
sS'wheat soybeans'
p167
S'wheat soybean'
p168
sS'orange carrot juice concentrates'
p169
S'orange carrot juice concentrate'
p170
sS'pancakes'
p171
S'pancake'
p172
sS'citric acid and lactic acids'
p173
S'citric acid and lactic acid'
p174
sS'organic celery seeds'
p175
S'organic celery seed'
p176
sS'dehydrated whole eggs'
p177
S'dehydrated whole egg'
p178
sS'spice and natural flavorings'
p179
S'spice and natural flavoring'
p180
sS'cashewnuts'
p181
S'cashewnut'
p182
sS'natyral and artificial flavors'
p183
S'natyral and artificial flavor'
p184
sS'canola and soybean oils'
p185
S'canola and soybean oil'
p186
sS'tree nuts'
p187
S'tree nut'
p188
sS'walnuts'
p189
S'walnut'
p190
sS'annatto & turmeric extracts'
p191
S'annatto & turmeric extract'
p192
sS'yellow peaches'
p193
S'yellow peach'
p194
sS'powdered mushrooms'
p195
S'powdered mushroom'
p196
sS'coloring agents'
p197
S'coloring agent'
p198
sS'leaves'
p199
S'leaf'
p200
sS'organic prunes'
p201
S'organic prune'
p202
sS'fire-roasted tomatoes'
p203
S'fire-roasted tomato'
p204
sS'lemon juice concentrates'
p205
S'lemon juice concentrate'
p206
sS'microbial enzymes'
p207
S'microbial enzyme'
p208
sS'extracts of raspberries'
p209
S'extract of raspberries'
p210
sS'ground tomatoes'
p211
S'ground tomato'
p212
sS'natural cherry flavors'
p213
S'natural cherry flavor'
p214
sS'cheddar/parmesan/romano/swiss cheeses'
p215
S'cheddar/parmesan/romano/swiss cheese'
p216
sS'cilantro flakes'
p217
S'cilantro flake'
p218
sS'palm and soybean oils'
p219
S'palm and soybean oil'
p220
sS'rehydrated black beans'
p221
S'rehydrated black bean'
p222
sS'pasteurized egg whites'
p223
S'pasteurized egg white'
p224
sS'textured soy proteins'
p225
S'textured soy protein'
p226
sS'minced anchovies'
p227
S'minced anchovy'
p228
sS'meats'
p229
S'meat'
p230
sS'onion & garlic powders'
p231
S'onion & garlic powder'
p232
sS'skinless chicken breasts'
p233
S'skinless chicken breast'
p234
sS'corn syrups'
p235
S'corn syrup'
p236
sS'1 percent or less of each of the following: mono and diglycerides'
p237
S'1 percent or les of each of the following: mono and diglycerides'
p238
sS'white toasted sesame seeds'
p239
S'white toasted sesame seed'
p240
sS'palm kernal oils'
p241
S'palm kernal oil'
p242
sS'salt tomatoes'
p243
S'salt tomato'
p244
sS'pear and grape juice concentrates'
p245
S'pear and grape juice concentrate'
p246
sS'spices extractives'
p247
S'spices extractive'
p248
sS'nonnutritive sweeteners'
p249
S'nonnutritive sweetener'
p250
sS'bacterial proteases'
p251
S'bacterial protease'
p252
sS'kombucha cultures'
p253
S'kombucha culture'
p254
sS'fresh basil leaves'
p255
S'fresh basil leaf'
p256
sS'dry onions'
p257
S'dry onion'
p258
sS'acai berries'
p259
S'acai berry'
p260
sS'white sesame seeds'
p261
S'white sesame seed'
p262
sS'fumaric acids'
p263
S'fumaric acid'
p264
sS'organic jalapenos'
p265
S'organic jalapeno'
p266
sS'guava purees'
p267
S'guava puree'
p268
sS'yellow mustard seeds'
p269
S'yellow mustard seed'
p270
sS'yellow split peas'
p271
S'yellow split pea'
p272
sS'dried peppers'
p273
S'dried pepper'
p274
sS'turmeric and annatto extracts'
p275
S'turmeric and annatto extract'
p276
sS'salt and stabilizers'
p277
S'salt and stabilizer'
p278
sS'hot red peppers'
p279
S'hot red pepper'
p280
sS'maltodextrin natural flavors'
p281
S'maltodextrin natural flavor'
p282
sS'vitamins and minerals'
p283
S'vitamins and mineral'
p284
sS'autolyzed yeast extract spices'
p285
S'autolyzed yeast extract spice'
p286
sS'dried garlic spices'
p287
S'dried garlic spice'
p288
sS'partially hydrogenated soybean and /or cottonseed oils'
p289
S'partially hydrogenated soybean and /or cottonseed oil'
p290
sS'red berries'
p291
S'red berry'
p292
sS'orange blossoms'
p293
S'orange blossom'
p294
sS'flax sees'
p295
S'flax see'
p296
sS'vegetable colors'
p297
S'vegetable color'
p298
sS'cannellini beans'
p299
S'cannellini bean'
p300
sS'crushed tomatillos'
p301
S'crushed tomatillo'
p302
sS'dried habaneros'
p303
S'dried habanero'
p304
sS'hazel nuts'
p305
S'hazel nut'
p306
sS'chicken broth and natural flavors'
p307
S'chicken broth and natural flavor'
p308
sS'organic roasted onions'
p309
S'organic roasted onion'
p310
sS'diglycerides'
p311
S'diglyceride'
p312
sS'emulsifier: mono and diglycerides of fatty acids'
p313
S'emulsifier: mono and diglyceride of fatty acids'
p314
sS'whole dried eggs'
p315
S'whole dried egg'
p316
sS'mineral fatty acid esters'
p317
S'mineral fatty acid ester'
p318
sS'passionfruit concentrates'
p319
S'passionfruit concentrate'
p320
sS'turkey thighs'
p321
S'turkey thigh'
p322
sS'natural apple flavors'
p323
S'natural apple flavor'
p324
sS'ethoxylated mono- and diglycerides'
p325
S'ethoxylated mono- and diglyceride'
p326
sS'cheddar and parmesean cheeses'
p327
S'cheddar and parmesean cheese'
p328
sS'spice oils'
p329
S'spice oil'
p330
sS'roasted fresh jalapeno peppers'
p331
S'roasted fresh jalapeno pepper'
p332
sS'cooked vegetables'
p333
S'cooked vegetable'
p334
sS'natural sesame seeds'
p335
S'natural sesame seed'
p336
sS'artifical flavors'
p337
S'artifical flavor'
p338
sS'pasteurized part skim milk cheese cultures'
p339
S'pasteurized part skim milk cheese culture'
p340
sS'tilapia fillets'
p341
S'tilapia fillet'
p342
sS'green beans'
p343
S'green bean'
p344
sS'reconstituted vegetable juices of carrots'
p345
S'reconstituted vegetable juice of carrots'
p346
sS'cilantro flavors'
p347
S'cilantro flavor'
p348
sS'cinnamon bits'
p349
S'cinnamon bit'
p350
sS'natural vanilla and chocolate flavors'
p351
S'natural vanilla and chocolate flavor'
p352
sS'chamomile and rosemary extracts'
p353
S'chamomile and rosemary extract'
p354
sS'chicken tenderloins'
p355
S'chicken tenderloin'
p356
sS'natural and artififical flavors'
p357
S'natural and artififical flavor'
p358
sS'freeze dried pineapples'
p359
S'freeze dried pineapple'
p360
sS'art. colors'
p361
S'art. color'
p362
sS'nuts'
p363
S'nut'
p364
sS'flavour enhancers'
p365
S'flavour enhancer'
p366
sS'boneless chicken breasts with rib meat'
p367
S'boneless chicken breast with rib meat'
p368
sS'natural and artificial grape flavors'
p369
S'natural and artificial grape flavor'
p370
sS'red chiles'
p371
S'red chile'
p372
sS'green peppercorns'
p373
S'green peppercorn'
p374
sS'organic lemons'
p375
S'organic lemon'
p376
sS'parsnips'
p377
S'parsnip'
p378
sS'hydrogenated rapeseed and cotton seed oils'
p379
S'hydrogenated rapeseed and cotton seed oil'
p380
sS'extracts of whiting'
p381
S'extract of whiting'
p382
sS'psyllium seeds'
p383
S'psyllium seed'
p384
sS'chilito peppers'
p385
S'chilito pepper'
p386
sS'dried green peas'
p387
S'dried green pea'
p388
sS'dairy product solids'
p389
S'dairy product solid'
p390
sS'hydrogenated rapeseed oils'
p391
S'hydrogenated rapeseed oil'
p392
sS'dark chocolate chips'
p393
S'dark chocolate chip'
p394
sS'calendula flowers'
p395
S'calendula flower'
p396
sS'organic green tea leaves'
p397
S'organic green tea leaf'
p398
sS'emulsifier soya lecithins'
p399
S'emulsifier soya lecithin'
p400
sS'salted chili peppers'
p401
S'salted chili pepper'
p402
sS'mono & diglycerides'
p403
S'mono & diglyceride'
p404
sS'whole grain rolled oats'
p405
S'whole grain rolled oat'
p406
sS'extractives of vanilla beans'
p407
S'extractive of vanilla beans'
p408
sS'coconut flakes'
p409
S'coconut flake'
p410
sS'tomatoes in puree'
p411
S'tomato in puree'
p412
sS'oysters'
p413
S'oyster'
p414
sS'chards'
p415
S'chard'
p416
sS'propylene gylcol esters of fatty acids'
p417
S'propylene gylcol ester of fatty acids'
p418
sS'pineapple and orange juice concentrates'
p419
S'pineapple and orange juice concentrate'
p420
sS'monocalcium phosphates'
p421
S'monocalcium phosphate'
p422
sS'hydrolyzed corn & soy proteins'
p423
S'hydrolyzed corn & soy protein'
p424
sS'raspberry ketones'
p425
S'raspberry ketone'
p426
sS'natural flavors and vegetable juices'
p427
S'natural flavors and vegetable juice'
p428
sS'organic mustard seeds'
p429
S'organic mustard seed'
p430
sS'crumbs'
p431
S'crumb'
p432
sS'folic acids'
p433
S'folic acid'
p434
sS'preservetives'
p435
S'preservetive'
p436
sS'palm and coconut oils'
p437
S'palm and coconut oil'
p438
sS'guava juices'
p439
S'guava juice'
p440
sS'fresh potatoes'
p441
S'fresh potato'
p442
sS'natural flavros'
p443
S'natural flavro'
p444
sS'plantains'
p445
S'plantain'
p446
sS'organic chile peppers'
p447
S'organic chile pepper'
p448
sS'canola or corn oils'
p449
S'canola or corn oil'
p450
sS'organic omega 3 chia seeds'
p451
S'organic omega 3 chia seed'
p452
sS'oyster extractives'
p453
S'oyster extractive'
p454
sS'black chia seeds'
p455
S'black chia seed'
p456
sS'organic sesame seeds'
p457
S'organic sesame seed'
p458
sS'palm seeds'
p459
S'palm seed'
p460
sS'patially hydrogenated vegetable oils'
p461
S'patially hydrogenated vegetable oil'
p462
sS'wheatgerms'
p463
S'wheatgerm'
p464
sS'modified palm and palm kernel oils'
p465
S'modified palm and palm kernel oil'
p466
sS'purified stevia extracts'
p467
S'purified stevia extract'
p468
sS'natural and artificial flavorings'
p469
S'natural and artificial flavoring'
p470
sS'pickled radishes'
p471
S'pickled radish'
p472
sS'rape oils'
p473
S'rape oil'
p474
sS'dried whole eggs'
p475
S'dried whole egg'
p476
sS'pickling spices'
p477
S'pickling spice'
p478
sS'trace amounts of potassium & magnesium'
p479
S'trace amount of potassium & magnesium'
p480
sS'stabilzers'
p481
S'stabilzer'
p482
sS'fruit puree concentrates'
p483
S'fruit puree concentrate'
p484
sS'whole eggs'
p485
S'whole egg'
p486
sS'citric acid,natural flavors'
p487
S'citric acid,natural flavor'
p488
sS'potato and corn starches'
p489
S'potato and corn starch'
p490
sS'calcium and sodium phosphates'
p491
S'calcium and sodium phosphate'
p492
sS'garlic granules'
p493
S'garlic granule'
p494
sS'palm and kernel oils'
p495
S'palm and kernel oil'
p496
sS'cooked italian style meatballs'
p497
S'cooked italian style meatball'
p498
sS'cheese flavours'
p499
S'cheese flavour'
p500
sS'beef hearts'
p501
S'beef heart'
p502
sS'pineapple flavors'
p503
S'pineapple flavor'
p504
sS'soybean and canola oils'
p505
S'soybean and canola oil'
p506
sS'jalapeno peppers'
p507
S'jalapeno pepper'
p508
sS'potatoes'
p509
S'potato'
p510
sS'pomegranate flavors'
p511
S'pomegranate flavor'
p512
sS'chocolate chunks'
p513
S'chocolate chunk'
p514
sS'cranberry and raspberry juice concentrates'
p515
S'cranberry and raspberry juice concentrate'
p516
sS'granular and blue cheeses'
p517
S'granular and blue cheese'
p518
sS'navy beans'
p519
S'navy bean'
p520
sS'red pimientos'
p521
S'red pimiento'
p522
sS'herrings'
p523
S'herring'
p524
sS'corn gluten and wheat proteins'
p525
S'corn gluten and wheat protein'
p526
sS'omega3 chia seeds'
p527
S'omega3 chia seed'
p528
sS'sour cream cultures'
p529
S'sour cream culture'
p530
sS'hydrogenated palm kernel oils'
p531
S'hydrogenated palm kernel oil'
p532
sS'artifical and natural flavors'
p533
S'artifical and natural flavor'
p534
sS'whole liquid eggs'
p535
S'whole liquid egg'
p536
sS'roasted anaheim peppers'
p537
S'roasted anaheim pepper'
p538
sS'granola clusters'
p539
S'granola cluster'
p540
sS'aloe vera pulps'
p541
S'aloe vera pulp'
p542
sS'swai fillets'
p543
S'swai fillet'
p544
sS'natural & artificial caramel flavors'
p545
S'natural & artificial caramel flavor'
p546
sS'jasmine flowers'
p547
S'jasmine flower'
p548
sS'fruit sugars'
p549
S'fruit sugar'
p550
sS'enriched macaroni products'
p551
S'enriched macaroni product'
p552
sS'pinto beans'
p553
S'pinto bean'
p554
sS'kosher gelatin. natural flavors'
p555
S'kosher gelatin. natural flavor'
p556
sS'candied fruits'
p557
S'candied fruit'
p558
sS'water flavorings'
p559
S'water flavoring'
p560
sS'leavnenings'
p561
S'leavnening'
p562
sS'annatto extracts'
p563
S'annatto extract'
p564
sS'modified palm oils'
p565
S'modified palm oil'
p566
sS'pomegranate seeds'
p567
S'pomegranate seed'
p568
sS'defatted soybeans'
p569
S'defatted soybean'
p570
sS'imported italian tomatoes'
p571
S'imported italian tomato'
p572
sS'calcium caseinates'
p573
S'calcium caseinate'
p574
sS'chokeberry juices'
p575
S'chokeberry juice'
p576
sS'dried green peppers'
p577
S'dried green pepper'
p578
sS'cream sodium phosphates'
p579
S'cream sodium phosphate'
p580
sS'enzmes'
p581
S'enzme'
p582
sS'oyster mushrooms'
p583
S'oyster mushroom'
p584
sS'pear puree concentrates'
p585
S'pear puree concentrate'
p586
sS'humectants'
p587
S'humectant'
p588
sS'roasted red onions'
p589
S'roasted red onion'
p590
sS'chicken cutlets'
p591
S'chicken cutlet'
p592
sS'fire roasted red peppers'
p593
S'fire roasted red pepper'
p594
sS'peppermint oils'
p595
S'peppermint oil'
p596
sS'soy lecitins'
p597
S'soy lecitin'
p598
sS'organic yellow onions'
p599
S'organic yellow onion'
p600
sS'cheese cultures'
p601
S'cheese culture'
p602
sS'natural lemon and lime flavors'
p603
S'natural lemon and lime flavor'
p604
sS'egg yols'
p605
S'egg yol'
p606
sS'hulled hemp seeds'
p607
S'hulled hemp seed'
p608
sS'sausage crumbles'
p609
S'sausage crumble'
p610
sS'spicees'
p611
S'spicee'
p612
sS'soybean oils'
p613
S'soybean oil'
p614
sS'cellulose fibres'
p615
S'cellulose fibre'
p616
sS'mono and di glycerides'
p617
S'mono and di glyceride'
p618
sS'natural liquid smoke flavorings'
p619
S'natural liquid smoke flavoring'
p620
sS'organic crushed red peppers'
p621
S'organic crushed red pepper'
p622
sS'toasted almonds'
p623
S'toasted almond'
p624
sS'brazils'
p625
S'brazil'
p626
sS'jalapenos peppers'
p627
S'jalapenos pepper'
p628
sS'lingonberries'
p629
S'lingonberry'
p630
sS'coconut and soybean oils'
p631
S'coconut and soybean oil'
p632
sS'freeze dried bananas'
p633
S'freeze dried banana'
p634
sS'diacetyl tartaric acid esters of mono-and diglycerides'
p635
S'diacetyl tartaric acid ester of mono-and diglycerides'
p636
sS'ginger roots'
p637
S'ginger root'
p638
sS'part hydrogenated soybean & cottonseed oils'
p639
S'part hydrogenated soybean & cottonseed oil'
p640
sS'palm oil and its fractions'
p641
S'palm oil and its fraction'
p642
sS'dried garlic and onions'
p643
S'dried garlic and onion'
p644
sS'microbial cultures'
p645
S'microbial culture'
p646
sS'organic dried onions'
p647
S'organic dried onion'
p648
sS'green onions'
p649
S'green onion'
p650
sS'natural and artificial crab flavors'
p651
S'natural and artificial crab flavor'
p652
sS'soy protein isolates'
p653
S'soy protein isolate'
p654
sS'olive oils'
p655
S'olive oil'
p656
sS'black peppers'
p657
S'black pepper'
p658
sS'natural french vanilla flavors'
p659
S'natural french vanilla flavor'
p660
sS'sun dried tomatoes'
p661
S'sun dried tomato'
p662
sS'fatty acid esters'
p663
S'fatty acid ester'
p664
sS'confectioners'
p665
S'confectioner'
p666
sS'dried onion flakes'
p667
S'dried onion flake'
p668
sS'palm kernel and soybean oils'
p669
S'palm kernel and soybean oil'
p670
sS'ground cayenne peppers'
p671
S'ground cayenne pepper'
p672
sS'rolled oats'
p673
S'rolled oat'
p674
sS'caramelized sugars'
p675
S'caramelized sugar'
p676
sS'whole sesame seeds'
p677
S'whole sesame seed'
p678
sS'muenster cheeses'
p679
S'muenster cheese'
p680
sS'organic white potatoes'
p681
S'organic white potato'
p682
sS'organic cherries'
p683
S'organic cherry'
p684
sS'diced mangoes'
p685
S'diced mango'
p686
sS'spice extractives'
p687
S'spice extractive'
p688
sS'lactic acid starters'
p689
S'lactic acid starter'
p690
sS'pear and apple juice concentrates'
p691
S'pear and apple juice concentrate'
p692
sS'almonds and hazelnuts in variable proportion'
p693
S'almonds and hazelnut in variable proportion'
p694
sS'red pepper flakes'
p695
S'red pepper flake'
p696
sS'alphs tocopherols'
p697
S'alphs tocopherol'
p698
sS'malt balls'
p699
S'malt ball'
p700
sS'stearic acid vegetable sources'
p701
S'stearic acid vegetable source'
p702
sS'sodium phosphates'
p703
S'sodium phosphate'
p704
sS'reduced minerals'
p705
S'reduced mineral'
p706
sS'carragenans'
p707
S'carragenan'
p708
sS'organic cage free eggs'
p709
S'organic cage free egg'
p710
sS'lemon juices'
p711
S'lemon juice'
p712
sS'organic clove buds'
p713
S'organic clove bud'
p714
sS'fresh chile peppers'
p715
S'fresh chile pepper'
p716
sS'garlic flavors'
p717
S'garlic flavor'
p718
sS'partially hydrogenated soybean and cottonseed oils with citric acid'
p719
S'partially hydrogenated soybean and cottonseed oil with citric acid'
p720
sS'partially hydrogenated soybean and palm oils'
p721
S'partially hydrogenated soybean and palm oil'
p722
sS'vegetable powders'
p723
S'vegetable powder'
p724
sS'green pepper flakes'
p725
S'green pepper flake'
p726
sS'organic citrus flavors'
p727
S'organic citrus flavor'
p728
sS'portabella mushrooms'
p729
S'portabella mushroom'
p730
sS'modified tapioca and corn starches'
p731
S'modified tapioca and corn starch'
p732
sS'mono and diglycerides'
p733
S'mono and diglyceride'
p734
sS'peppercorns'
p735
S'peppercorn'
p736
sS'ammonium phosphates'
p737
S'ammonium phosphate'
p738
sS'raising agents'
p739
S'raising agent'
p740
sS'sesame oil and spices'
p741
S'sesame oil and spice'
p742
sS'corns'
p743
S'corn'
p744
sS'partially hydrogenated soybean and cottonseed oils'
p745
S'partially hydrogenated soybean and cottonseed oil'
p746
sS'natural smoke and garlic flavors'
p747
S'natural smoke and garlic flavor'
p748
sS'dried leeks'
p749
S'dried leek'
p750
sS'sweet green peppers'
p751
S'sweet green pepper'
p752
sS'mayonnaises'
p753
S'mayonnaise'
p754
sS'solids'
p755
S'solid'
p756
sS'artichoke hearts'
p757
S'artichoke heart'
p758
sS'extractives of tumeric'
p759
S'extractive of tumeric'
p760
sS'diced apples'
p761
S'diced apple'
p762
sS'ammonium bicarbonate and artificial flavors'
p763
S'ammonium bicarbonate and artificial flavor'
p764
sS'high oleic vegetable oils'
p765
S'high oleic vegetable oil'
p766
sS'jalapeno & bell peppers'
p767
S'jalapeno & bell pepper'
p768
sS'puree concentrates'
p769
S'puree concentrate'
p770
sS'partially hydrogenated palm and soybean oils'
p771
S'partially hydrogenated palm and soybean oil'
p772
sS'folic acid egg whites'
p773
S'folic acid egg white'
p774
sS'vegetable juice colors'
p775
S'vegetable juice color'
p776
sS'soybean and cottonseed oils with mono and diglycerides'
p777
S'soybean and cottonseed oil with mono and diglycerides'
p778
sS'shallots'
p779
S'shallot'
p780
sS'coriander leaves'
p781
S'coriander leaf'
p782
sS'sorbic acids'
p783
S'sorbic acid'
p784
sS'chili peppers'
p785
S'chili pepper'
p786
sS'yeast extracts'
p787
S'yeast extract'
p788
sS'active yogurt cultures'
p789
S'active yogurt culture'
p790
sS'organic chives'
p791
S'organic chive'
p792
sS'red ripe tomatoes'
p793
S'red ripe tomato'
p794
sS'hydrolyzed corn and wheat gluten proteins'
p795
S'hydrolyzed corn and wheat gluten protein'
p796
sS'soups'
p797
S'soup'
p798
sS'ground annatto seeds'
p799
S'ground annatto seed'
p800
sS'dried shiitake mushrooms'
p801
S'dried shiitake mushroom'
p802
sS'organic kevita probiotic cultures'
p803
S'organic kevita probiotic culture'
p804
sS'jalapenos'
p805
S'jalapeno'
p806
sS'pear concentrates'
p807
S'pear concentrate'
p808
sS'natural vanilla flavors'
p809
S'natural vanilla flavor'
p810
sS'leavenins'
p811
S'leavenin'
p812
sS'soy and corn proteins'
p813
S'soy and corn protein'
p814
sS'mono - and diglycerides'
p815
S'mono - and diglyceride'
p816
sS'palm and soybean oils with tbhq and citric acid'
p817
S'palm and soybean oil with tbhq and citric acid'
p818
sS'celery. onions'
p819
S'celery. onion'
p820
sS'palm and rapeseed oils'
p821
S'palm and rapeseed oil'
p822
sS'currants'
p823
S'currant'
p824
sS'organic chipotle peppers'
p825
S'organic chipotle pepper'
p826
sS'organic brown flaxseeds'
p827
S'organic brown flaxseed'
p828
sS'dehydrated carrots'
p829
S'dehydrated carrot'
p830
sS'jalapeno pepper granules'
p831
S'jalapeno pepper granule'
p832
sS'roasted sunflower kernels'
p833
S'roasted sunflower kernel'
p834
sS'gum gums'
p835
S'gum gum'
p836
sS'jumbo dark raisins'
p837
S'jumbo dark raisin'
p838
sS'banana flavors'
p839
S'banana flavor'
p840
sS'dried raspberries'
p841
S'dried raspberry'
p842
sS'coconut and palm kernel oils'
p843
S'coconut and palm kernel oil'
p844
sS'buttermilk flavors'
p845
S'buttermilk flavor'
p846
sS'dried red and green bell peppers'
p847
S'dried red and green bell pepper'
p848
sS'white distilled and balsamic vinegars'
p849
S'white distilled and balsamic vinegar'
p850
sS'whole soybeans'
p851
S'whole soybean'
p852
sS'apple and grape juice concentrates'
p853
S'apple and grape juice concentrate'
p854
sS'vitamin bs'
p855
S'vitamin b'
p856
sS'organic dried carrots'
p857
S'organic dried carrot'
p858
sS'cashews'
p859
S'cashew'
p860
sS'fructoligosaccarides'
p861
S'fructoligosaccaride'
p862
sS'natural onions'
p863
S'natural onion'
p864
sS'natural & artificial butter flavours'
p865
S'natural & artificial butter flavour'
p866
sS'chipotle jalapenos'
p867
S'chipotle jalapeno'
p868
sS'natural flavors and colors'
p869
S'natural flavors and color'
p870
sS'chicken meat including natural chicken juices'
p871
S'chicken meat including natural chicken juice'
p872
sS'extractives of paprika and turmeric'
p873
S'extractive of paprika and turmeric'
p874
sS'vanillin artificial flavors'
p875
S'vanillin artificial flavor'
p876
sS'hydrolyzed whey protein isolates'
p877
S'hydrolyzed whey protein isolate'
p878
sS'peanut butter peanuts'
p879
S'peanut butter peanut'
p880
sS'mono and diglycerides and preservatives'
p881
S'mono and diglycerides and preservative'
p882
sS'sugar and natural flavors'
p883
S'sugar and natural flavor'
p884
sS'minced pimientos'
p885
S'minced pimiento'
p886
sS'greens'
p887
S'green'
p888
sS'blueberry and pomegranate flavors with other natural flavors'
p889
S'blueberry and pomegranate flavor with other natural flavors'
p890
sS'salt and sodium phosphates'
p891
S'salt and sodium phosphate'
p892
sS'baby chards'
p893
S'baby chard'
p894
sS'propylene glycol esters'
p895
S'propylene glycol ester'
p896
sS'blue 1 & 2 lakes'
p897
S'blue 1 & 2 lake'
p898
sS'cauliflowers'
p899
S'cauliflower'
p900
sS'concentrated juices of carrots'
p901
S'concentrated juice of carrots'
p902
sS'coconut and peanuts'
p903
S'coconut and peanut'
p904
sS'wolfberry leaves'
p905
S'wolfberry leaf'
p906
sS'water and the concentrated juices of carrots'
p907
S'water and the concentrated juice of carrots'
p908
sS'oriental rice crackerss'
p909
S'oriental rice crackers'
p910
sS'seasame seeds'
p911
S'seasame seed'
p912
sS'sugar spheres'
p913
S'sugar sphere'
p914
sS'jalopenos'
p915
S'jalopeno'
p916
sS'hydrogenated soybean and cottonseed oils'
p917
S'hydrogenated soybean and cottonseed oil'
p918
sS'laurel leaves'
p919
S'laurel leaf'
p920
sS'partially hydrogenated palm kernel and palm oils'
p921
S'partially hydrogenated palm kernel and palm oil'
p922
sS'organic basil leaves'
p923
S'organic basil leaf'
p924
sS'organic cloves'
p925
S'organic clove'
p926
sS'pork bellies'
p927
S'pork belly'
p928
sS'salt & enzymes'
p929
S'salt & enzyme'
p930
sS'redd bell peppers'
p931
S'redd bell pepper'
p932
sS'broccoli sprouts'
p933
S'broccoli sprout'
p934
sS'noodles'
p935
S'noodle'
p936
sS'allspices'
p937
S'allspice'
p938
sS'natural extractives of paprika'
p939
S'natural extractive of paprika'
p940
sS'non-hydrogenated vegetable oils'
p941
S'non-hydrogenated vegetable oil'
p942
sS'mineral salts'
p943
S'mineral salt'
p944
sS'mangoes'
p945
S'mango'
p946
sS'artificial falvorings'
p947
S'artificial falvoring'
p948
sS'xanthan gum and natural flavors'
p949
S'xanthan gum and natural flavor'
p950
sS'essential oils'
p951
S'essential oil'
p952
sS'fresh cucumbers'
p953
S'fresh cucumber'
p954
sS'aloe vera flavors'
p955
S'aloe vera flavor'
p956
sS'natural flavor enhancers'
p957
S'natural flavor enhancer'
p958
sS'imitation bacon bits'
p959
S'imitation bacon bit'
p960
sS'citric acid and extractives of paprika'
p961
S'citric acid and extractive of paprika'
p962
sS'dried egg yolks with sodium silicoaluminate'
p963
S'dried egg yolk with sodium silicoaluminate'
p964
sS'popping candies'
p965
S'popping candy'
p966
sS'includes soybeans'
p967
S'includes soybean'
p968
sS'concentrated vegetable juices'
p969
S'concentrated vegetable juice'
p970
sS'proteases'
p971
S'protease'
p972
sS'mozzarella and parmesan cheeses'
p973
S'mozzarella and parmesan cheese'
p974
sS'partially hydrogenated soybean and cottonseed oils with tbhq'
p975
S'partially hydrogenated soybean and cottonseed oil with tbhq'
p976
sS'sprouted grains'
p977
S'sprouted grain'
p978
sS'natural flavor and colors'
p979
S'natural flavor and color'
p980
sS'organic fruit juice concentrates'
p981
S'organic fruit juice concentrate'
p982
sS'granular and parmesan cheeses'
p983
S'granular and parmesan cheese'
p984
sS'green bananas'
p985
S'green banana'
p986
sS'metabisulfites'
p987
S'metabisulfite'
p988
sS'non hydrogenated vegetable oils'
p989
S'non hydrogenated vegetable oil'
p990
sS'garlic powder and spices'
p991
S'garlic powder and spice'
p992
sS'organic flavors'
p993
S'organic flavor'
p994
sS'preservs'
p995
S'preserv'
p996
sS'organic goldenberries'
p997
S'organic goldenberry'
p998
sS'blueberry and carrot juice concentrates'
p999
S'blueberry and carrot juice concentrate'
p1000
sS'preseryatives'
p1001
S'preseryative'
p1002
sS'dried anaheim chili peppers'
p1003
S'dried anaheim chili pepper'
p1004
sS'eggs yolks'
p1005
S'eggs yolk'
p1006
sS'dehydrated green chili peppers'
p1007
S'dehydrated green chili pepper'
p1008
sS'dehydrated chili peppers'
p1009
S'dehydrated chili pepper'
p1010
sS'mexican limes'
p1011
S'mexican lime'
p1012
sS'acidfiers'
p1013
S'acidfier'
p1014
sS'extracts'
p1015
S'extract'
p1016
sS'salt enzymes'
p1017
S'salt enzyme'
p1018
sS'citric acid flavorings'
p1019
S'citric acid flavoring'
p1020
sS'garbanzo beans'
p1021
S'garbanzo bean'
p1022
sS'cage-free liquid eggs'
p1023
S'cage-free liquid egg'
p1024
sS'organic bell peppers'
p1025
S'organic bell pepper'
p1026
sS'premium brewed black teas'
p1027
S'premium brewed black tea'
p1028
sS'guajillo peppers'
p1029
S'guajillo pepper'
p1030
sS'stevia leaf extracts'
p1031
S'stevia leaf extract'
p1032
sS'ground chili peppers'
p1033
S'ground chili pepper'
p1034
sS'natural guava flavors'
p1035
S'natural guava flavor'
p1036
sS'mackerels'
p1037
S'mackerel'
p1038
sS'excipients'
p1039
S'excipient'
p1040
sS'natural grape flavors'
p1041
S'natural grape flavor'
p1042
sS'ghost peppers'
p1043
S'ghost pepper'
p1044
sS'organic natural apple flavors'
p1045
S'organic natural apple flavor'
p1046
sS'mint leaves'
p1047
S'mint leaf'
p1048
sS'titanium dioxide artificial colors'
p1049
S'titanium dioxide artificial color'
p1050
sS'thai chili peppers'
p1051
S'thai chili pepper'
p1052
sS'beet juice colors'
p1053
S'beet juice color'
p1054
sS'with traces of lime'
p1055
S'with trace of lime'
p1056
sS'dried parmesan cheeses'
p1057
S'dried parmesan cheese'
p1058
sS'color additives'
p1059
S'color additive'
p1060
sS'tumeric and annatto extracts'
p1061
S'tumeric and annatto extract'
p1062
sS'habanero peppers'
p1063
S'habanero pepper'
p1064
sS'extractives of annatto'
p1065
S'extractive of annatto'
p1066
sS'corn and soy proteins'
p1067
S'corn and soy protein'
p1068
sS'sodium & potassium phosphates'
p1069
S'sodium & potassium phosphate'
p1070
sS'natural and artificial colors'
p1071
S'natural and artificial color'
p1072
sS'spices and herbs'
p1073
S'spices and herb'
p1074
sS'isolated soy proteins'
p1075
S'isolated soy protein'
p1076
sS'artificial flavors'
p1077
S'artificial flavor'
p1078
sS'corn starch spices'
p1079
S'corn starch spice'
p1080
sS'100% soybeans'
p1081
S'100% soybean'
p1082
sS'raspberry seed extracts'
p1083
S'raspberry seed extract'
p1084
sS'cranberries'
p1085
S'cranberry'
p1086
sS'palm and modified palm oils'
p1087
S'palm and modified palm oil'
p1088
sS'wheat and soy proteins'
p1089
S'wheat and soy protein'
p1090
sS'organic red onions'
p1091
S'organic red onion'
p1092
sS'acidity correctors'
p1093
S'acidity corrector'
p1094
sS'tomato pasts'
p1095
S'tomato past'
p1096
sS'parmesan and romano cheeses'
p1097
S'parmesan and romano cheese'
p1098
sS'artificial flavours'
p1099
S'artificial flavour'
p1100
sS'natural extractives'
p1101
S'natural extractive'
p1102
sS'dark chocolate flavored chips'
p1103
S'dark chocolate flavored chip'
p1104
sS'black beans'
p1105
S'black bean'
p1106
sS'organic whole brown flax seeds'
p1107
S'organic whole brown flax seed'
p1108
sS'egg yolks'
p1109
S'egg yolk'
p1110
sS'white grapes'
p1111
S'white grape'
p1112
sS'organic spices'
p1113
S'organic spice'
p1114
sS'organic artichokes'
p1115
S'organic artichoke'
p1116
sS'fruit and vegetable juices'
p1117
S'fruit and vegetable juice'
p1118
sS'green lentils'
p1119
S'green lentil'
p1120
sS'cheddar cheeses'
p1121
S'cheddar cheese'
p1122
sS'citrus oils'
p1123
S'citrus oil'
p1124
sS'part-skim milks'
p1125
S'part-skim milk'
p1126
sS'calcium chlorides'
p1127
S'calcium chloride'
p1128
sS'yellow potatoes'
p1129
S'yellow potato'
p1130
sS'filtered water and fruit juice concentrates'
p1131
S'filtered water and fruit juice concentrate'
p1132
sS'lemon peels'
p1133
S'lemon peel'
p1134
sS'dried bay leaves'
p1135
S'dried bay leaf'
p1136
sS'cons'
p1137
S'con'
p1138
sS'from eggs'
p1139
S'from egg'
p1140
sS'quinces'
p1141
S'quince'
p1142
sS'natural & artificial colors'
p1143
S'natural & artificial color'
p1144
sS'salad mustard solids'
p1145
S'salad mustard solid'
p1146
sS'horseradish roots'
p1147
S'horseradish root'
p1148
sS'brown flaxseeds'
p1149
S'brown flaxseed'
p1150
sS'platains'
p1151
S'platain'
p1152
sS'thymes'
p1153
S'thyme'
p1154
sS'roma tomatoes'
p1155
S'roma tomato'
p1156
sS'acerola juice concentrates'
p1157
S'acerola juice concentrate'
p1158
sS'natral flavors'
p1159
S'natral flavor'
p1160
sS'sauce: crushed tomatoes'
p1161
S'sauce: crushed tomato'
p1162
sS'green & red peppers'
p1163
S'green & red pepper'
p1164
sS'carrot and onion juice concentrates'
p1165
S'carrot and onion juice concentrate'
p1166
sS'chilis'
p1167
S'chili'
p1168
sS'paprika spices'
p1169
S'paprika spice'
p1170
sS'natural and flavors'
p1171
S'natural and flavor'
p1172
sS'papayas'
p1173
S'papaya'
p1174
sS'glycol monoesters'
p1175
S'glycol monoester'
p1176
sS'wheat brans'
p1177
S'wheat bran'
p1178
sS'roasted red bell peppers'
p1179
S'roasted red bell pepper'
p1180
sS'milk and soybeans'
p1181
S'milk and soybean'
p1182
sS'hydrogenated starch hydrolysates'
p1183
S'hydrogenated starch hydrolysate'
p1184
sS'grape and raspberry juice concentrates'
p1185
S'grape and raspberry juice concentrate'
p1186
sS'garlic onions'
p1187
S'garlic onion'
p1188
sS'grape flavors'
p1189
S'grape flavor'
p1190
sS'dried mushroom flakes'
p1191
S'dried mushroom flake'
p1192
sS'steviol glycosides'
p1193
S'steviol glycoside'
p1194
sS'corn potatoes'
p1195
S'corn potato'
p1196
sS'hass avocados'
p1197
S'hass avocado'
p1198
sS'esters of fatty acids'
p1199
S'ester of fatty acids'
p1200
sS'organic blackberries'
p1201
S'organic blackberry'
p1202
sS'non hydrogenated shortenings'
p1203
S'non hydrogenated shortening'
p1204
sS'organic fruit and vegetable juices'
p1205
S'organic fruit and vegetable juice'
p1206
sS'saw palmetto berries'
p1207
S'saw palmetto berry'
p1208
sS'yellow onions'
p1209
S'yellow onion'
p1210
sS'flavored coffees'
p1211
S'flavored coffee'
p1212
sS'jalapenoes'
p1213
S'jalapeno'
p1214
sS'lime and orange oils'
p1215
S'lime and orange oil'
p1216
sS'aged cayenne peppers'
p1217
S'aged cayenne pepper'
p1218
sS'milk products'
p1219
S'milk product'
p1220
sS'vanilla bean extractives'
p1221
S'vanilla bean extractive'
p1222
sS'water onions'
p1223
S'water onion'
p1224
sS'modified corn and tapioca starches'
p1225
S'modified corn and tapioca starch'
p1226
sS'celerys'
p1227
S'celery'
p1228
sS'natural and artificial. flavors'
p1229
S'natural and artificial. flavor'
p1230
sS'natural & artificial butter flavors'
p1231
S'natural & artificial butter flavor'
p1232
sS'dehydrated garlic and onions'
p1233
S'dehydrated garlic and onion'
p1234
sS'seedless cucumbers'
p1235
S'seedless cucumber'
p1236
sS'trans fats'
p1237
S'trans fat'
p1238
sS'chili and red peppers'
p1239
S'chili and red pepper'
p1240
sS'batatas'
p1241
S'batata'
p1242
sS'ethoxylated mono and diglycerides'
p1243
S'ethoxylated mono and diglyceride'
p1244
sS'hydrogenated cottonseed and soybean oils'
p1245
S'hydrogenated cottonseed and soybean oil'
p1246
sS'paprika and annatto extracts'
p1247
S'paprika and annatto extract'
p1248
sS'organic freeze dried mangoes'
p1249
S'organic freeze dried mango'
p1250
sS'natural herbs and spices'
p1251
S'natural herbs and spice'
p1252
sS'waffles'
p1253
S'waffle'
p1254
sS'wafers'
p1255
S'wafer'
p1256
sS'vegetable proteins'
p1257
S'vegetable protein'
p1258
sS'organic pineapples'
p1259
S'organic pineapple'
p1260
sS'smoked sardines'
p1261
S'smoked sardine'
p1262
sS'organic garbanzo beans'
p1263
S'organic garbanzo bean'
p1264
sS'onion carrots'
p1265
S'onion carrot'
p1266
sS'orange flavors'
p1267
S'orange flavor'
p1268
sS'no preservatives'
p1269
S'no preservative'
p1270
sS'green sweet peppers'
p1271
S'green sweet pepper'
p1272
sS'hydrolyzed soy and wheat proteins'
p1273
S'hydrolyzed soy and wheat protein'
p1274
sS'bcaas'
p1275
S'bcaa'
p1276
sS'ground vanilla beans'
p1277
S'ground vanilla bean'
p1278
sS'mustard sees'
p1279
S'mustard see'
p1280
sS'flavorings'
p1281
S'flavoring'
p1282
sS'dehydrated mangoes'
p1283
S'dehydrated mango'
p1284
sS'chives'
p1285
S'chive'
p1286
sS'yellow 5 and yellow 6 lakes'
p1287
S'yellow 5 and yellow 6 lake'
p1288
sS'milk chocolate peanut butter flakes'
p1289
S'milk chocolate peanut butter flake'
p1290
sS'fermented ginger root extracts'
p1291
S'fermented ginger root extract'
p1292
sS'red pepper chili flakes'
p1293
S'red pepper chili flake'
p1294
sS'hydrolyzed corn/soy/wheat proteins'
p1295
S'hydrolyzed corn/soy/wheat protein'
p1296
sS'rose petals'
p1297
S'rose petal'
p1298
sS'virgin olive oils'
p1299
S'virgin olive oil'
p1300
sS'natural mineral whiteners'
p1301
S'natural mineral whitener'
p1302
sS'organic cucumbers'
p1303
S'organic cucumber'
p1304
sS'swiss cheeses'
p1305
S'swiss cheese'
p1306
sS'organic shitake mushrooms'
p1307
S'organic shitake mushroom'
p1308
sS'natural rose flavors'
p1309
S'natural rose flavor'
p1310
sS'pear and carrot juice concentrates'
p1311
S'pear and carrot juice concentrate'
p1312
sS'carrageenans'
p1313
S'carrageenan'
p1314
sS'smoked jalapeno peppers'
p1315
S'smoked jalapeno pepper'
p1316
sS'ground red chili peppers'
p1317
S'ground red chili pepper'
p1318
sS'coarse ground tomatoes'
p1319
S'coarse ground tomato'
p1320
sS'extractives of capsicum'
p1321
S'extractive of capsicum'
p1322
sS'beta glucans'
p1323
S'beta glucan'
p1324
sS'black peppercorns'
p1325
S'black peppercorn'
p1326
sS'chilipeppers'
p1327
S'chilipepper'
p1328
sS'chamomile extracts'
p1329
S'chamomile extract'
p1330
sS'milk caseins'
p1331
S'milk casein'
p1332
sS'pasteurized liquid whole eggs'
p1333
S'pasteurized liquid whole egg'
p1334
sS'aged red peppers'
p1335
S'aged red pepper'
p1336
sS'chunks'
p1337
S'chunk'
p1338
sS'safflowers'
p1339
S'safflower'
p1340
sS'roasted red peppers'
p1341
S'roasted red pepper'
p1342
sS'cinnamon sticks'
p1343
S'cinnamon stick'
p1344
sS'wheat and soybeans'
p1345
S'wheat and soybean'
p1346
sS'romano and blue cheeses'
p1347
S'romano and blue cheese'
p1348
sS'organic salba chia seeds'
p1349
S'organic salba chia seed'
p1350
sS'propylene glycol monosters'
p1351
S'propylene glycol monoster'
p1352
sS'acidulants'
p1353
S'acidulant'
p1354
sS'golden flaxseeds'
p1355
S'golden flaxseed'
p1356
sS'roasted almonds'
p1357
S'roasted almond'
p1358
sS'freeze-dried bananas'
p1359
S'freeze-dried banana'
p1360
sS'butter fats'
p1361
S'butter fat'
p1362
sS'cottonseed and peanut oils'
p1363
S'cottonseed and peanut oil'
p1364
sS'pineapple juice concentrates'
p1365
S'pineapple juice concentrate'
p1366
sS'loins'
p1367
S'loin'
p1368
sS'habanero chile peppers'
p1369
S'habanero chile pepper'
p1370
sS'beta carotene colorings'
p1371
S'beta carotene coloring'
p1372
sS'rpeservatives'
p1373
S'rpeservative'
p1374
sS'garlic powder spices'
p1375
S'garlic powder spice'
p1376
sS'contain mustard seeds'
p1377
S'contain mustard seed'
p1378
sS'nature flavorings'
p1379
S'nature flavoring'
p1380
sS'dried red chili peppers'
p1381
S'dried red chili pepper'
p1382
sS'sweet pickles'
p1383
S'sweet pickle'
p1384
sS'liquid eggs'
p1385
S'liquid egg'
p1386
sS'toasted onions'
p1387
S'toasted onion'
p1388
sS'dehydrated lemon peels'
p1389
S'dehydrated lemon peel'
p1390
sS'american cheeses'
p1391
S'american cheese'
p1392
sS'isomalto-oligosaccharides'
p1393
S'isomalto-oligosaccharide'
p1394
sS'palm and fractionated palm oils'
p1395
S'palm and fractionated palm oil'
p1396
sS'processes with alkali'
p1397
S'process with alkali'
p1398
sS'palm oleins'
p1399
S'palm olein'
p1400
sS'lactic cultures'
p1401
S'lactic culture'
p1402
sS'red currants'
p1403
S'red currant'
p1404
sS'artificial sweetners'
p1405
S'artificial sweetner'
p1406
sS'partially hydrogenated cottonseed & soy oils'
p1407
S'partially hydrogenated cottonseed & soy oil'
p1408
sS'raw cashews'
p1409
S'raw cashew'
p1410
sS'romano and parmesan cheeses'
p1411
S'romano and parmesan cheese'
p1412
sS'organic raisins'
p1413
S'organic raisin'
p1414
sS'cane syrups'
p1415
S'cane syrup'
p1416
sS'whole grain oats'
p1417
S'whole grain oat'
p1418
sS'rose hips'
p1419
S'rose hip'
p1420
sS'celery spices'
p1421
S'celery spice'
p1422
sS'water egg yolks'
p1423
S'water egg yolk'
p1424
sS'cream and natural flavors'
p1425
S'cream and natural flavor'
p1426
sS'barley flours'
p1427
S'barley flour'
p1428
sS'sweet peppers'
p1429
S'sweet pepper'
p1430
sS'rice oils'
p1431
S'rice oil'
p1432
sS'artficial flavors'
p1433
S'artficial flavor'
p1434
sS'spices and flavorings'
p1435
S'spices and flavoring'
p1436
sS'soy mono and diglycerides'
p1437
S'soy mono and diglyceride'
p1438
sS'clarified lemon and clarified passion fruit juice concentrates'
p1439
S'clarified lemon and clarified passion fruit juice concentrate'
p1440
sS'pineapples'
p1441
S'pineapple'
p1442
sS'fire roasted jalapeno peppers'
p1443
S'fire roasted jalapeno pepper'
p1444
sS'organic psyllium seed husks'
p1445
S'organic psyllium seed husk'
p1446
sS'sucralose and natural flavors'
p1447
S'sucralose and natural flavor'
p1448
sS'chipotle chilis'
p1449
S'chipotle chili'
p1450
sS'sodium phosphtes'
p1451
S'sodium phosphte'
p1452
sS'mangos'
p1453
S'mango'
p1454
sS'cayenne red peppers'
p1455
S'cayenne red pepper'
p1456
sS'dried bananas'
p1457
S'dried banana'
p1458
sS'roasted peanuts'
p1459
S'roasted peanut'
p1460
sS'blackberry juice concentrates'
p1461
S'blackberry juice concentrate'
p1462
sS'palm and canola oils'
p1463
S'palm and canola oil'
p1464
sS'protein crisps'
p1465
S'protein crisp'
p1466
sS'ground almonds'
p1467
S'ground almond'
p1468
sS'almonds & cashews'
p1469
S'almonds & cashew'
p1470
sS'sun-dried tomatoes'
p1471
S'sun-dried tomato'
p1472
sS'ins 322 and polyglycerol esters'
p1473
S'ins 322 and polyglycerol ester'
p1474
sS'concentrated fruit juices'
p1475
S'concentrated fruit juice'
p1476
sS'avocados'
p1477
S'avocado'
p1478
sS'xanthan and cellulose gums'
p1479
S'xanthan and cellulose gum'
p1480
sS'dried green onions'
p1481
S'dried green onion'
p1482
sS'soybean and /or cottonseed oils'
p1483
S'soybean and /or cottonseed oil'
p1484
sS'hazelnut pralines'
p1485
S'hazelnut praline'
p1486
sS'organic vanilla beans'
p1487
S'organic vanilla bean'
p1488
sS'pinenuts'
p1489
S'pinenut'
p1490
sS'salt seasonings'
p1491
S'salt seasoning'
p1492
sS'organic golden flaxseeds'
p1493
S'organic golden flaxseed'
p1494
sS'sulphur dioxides'
p1495
S'sulphur dioxide'
p1496
sS'dough improvers'
p1497
S'dough improver'
p1498
sS'organic yellow bell peppers'
p1499
S'organic yellow bell pepper'
p1500
sS'brownies'
p1501
S'brownie'
p1502
sS'white grape and lemon juice concentrates'
p1503
S'white grape and lemon juice concentrate'
p1504
sS'calcium peroxides'
p1505
S'calcium peroxide'
p1506
sS'dill seeds'
p1507
S'dill seed'
p1508
sS'kosher enzymes'
p1509
S'kosher enzyme'
p1510
sS'pear juices'
p1511
S'pear juice'
p1512
sS'fermented juices'
p1513
S'fermented juice'
p1514
sS'five spices'
p1515
S'five spice'
p1516
sS'cherry stems'
p1517
S'cherry stem'
p1518
sS'prepared black beans'
p1519
S'prepared black bean'
p1520
sS'organic fruit juices'
p1521
S'organic fruit juice'
p1522
sS'string beans'
p1523
S'string bean'
p1524
sS'tangerines'
p1525
S'tangerine'
p1526
sS'diced onions'
p1527
S'diced onion'
p1528
sS'rasberries'
p1529
S'rasberry'
p1530
sS'yogurt raisins'
p1531
S'yogurt raisin'
p1532
sS'turmeric extracts'
p1533
S'turmeric extract'
p1534
sS'dehydrated cane juices'
p1535
S'dehydrated cane juice'
p1536
sS'hams'
p1537
S'ham'
p1538
sS'natural flavor and spices'
p1539
S'natural flavor and spice'
p1540
sS'organic turkish apricots'
p1541
S'organic turkish apricot'
p1542
sS'sunflower seeds'
p1543
S'sunflower seed'
p1544
sS'soybean and cottonseed oils'
p1545
S'soybean and cottonseed oil'
p1546
sS'muffins'
p1547
S'muffin'
p1548
sS'pasilla chili peppers'
p1549
S'pasilla chili pepper'
p1550
sS'cranberry juices'
p1551
S'cranberry juice'
p1552
sS'organic vanilla bean extractives in water'
p1553
S'organic vanilla bean extractive in water'
p1554
sS'plantain leaves'
p1555
S'plantain leaf'
p1556
sS'gouda cheeses'
p1557
S'gouda cheese'
p1558
sS'yellow #6 lakes'
p1559
S'yellow #6 lake'
p1560
sS'soices'
p1561
S'soice'
p1562
sS'black pepper and spices'
p1563
S'black pepper and spice'
p1564
sS'non-chlorofluorocarbons'
p1565
S'non-chlorofluorocarbon'
p1566
sS'dried porcini mushrooms'
p1567
S'dried porcini mushroom'
p1568
sS'organic blood oranges'
p1569
S'organic blood orange'
p1570
sS'acacia gums'
p1571
S'acacia gum'
p1572
sS'organic lavender flowers'
p1573
S'organic lavender flower'
p1574
sS'salt spices'
p1575
S'salt spice'
p1576
sS'dehydrated seasonings'
p1577
S'dehydrated seasoning'
p1578
sS'truffles'
p1579
S'truffle'
p1580
sS'chocolate and vanilla flavors'
p1581
S'chocolate and vanilla flavor'
p1582
sS'organic apples'
p1583
S'organic apple'
p1584
sS'juices'
p1585
S'juice'
p1586
sS'sour cream solids'
p1587
S'sour cream solid'
p1588
sS'artificial flavors and colors'
p1589
S'artificial flavors and color'
p1590
sS'canola and extra virgin olive oils'
p1591
S'canola and extra virgin olive oil'
p1592
sS'dehydrated strawberries'
p1593
S'dehydrated strawberry'
p1594
sS'cebollas'
p1595
S'cebolla'
p1596
sS'parmesan and asiago cheeses'
p1597
S'parmesan and asiago cheese'
p1598
sS'macadamias'
p1599
S'macadamia'
p1600
sS'dehydrated potatoes with preservative'
p1601
S'dehydrated potato with preservative'
p1602
sS'sugar syrups'
p1603
S'sugar syrup'
p1604
sS'chicken nugget patties'
p1605
S'chicken nugget patty'
p1606
sS'enhancers'
p1607
S'enhancer'
p1608
sS'radishes'
p1609
S'radish'
p1610
sS'natural almonds'
p1611
S'natural almond'
p1612
sS'paprika extractives'
p1613
S'paprika extractive'
p1614
sS'sustainable palm oils'
p1615
S'sustainable palm oil'
p1616
sS'100% kosher vegetable capsules'
p1617
S'100% kosher vegetable capsule'
p1618
sS'caramel swirls'
p1619
S'caramel swirl'
p1620
sS'partially hydrogenated soybean and cottonseed oils with mono and diglycerides'
p1621
S'partially hydrogenated soybean and cottonseed oil with mono and diglycerides'
p1622
sS'confectionery coatings'
p1623
S'confectionery coating'
p1624
sS'organic adzuki beans'
p1625
S'organic adzuki bean'
p1626
sS'vegetable concentrates'
p1627
S'vegetable concentrate'
p1628
sS'pasteurized milk & cream cheese cultures'
p1629
S'pasteurized milk & cream cheese culture'
p1630
sS'key limes'
p1631
S'key lime'
p1632
sS'salt sodium phosphates'
p1633
S'salt sodium phosphate'
p1634
sS'romano and cheddar cheese powders'
p1635
S'romano and cheddar cheese powder'
p1636
sS'rosemary leaves'
p1637
S'rosemary leaf'
p1638
sS'fresh hams'
p1639
S'fresh ham'
p1640
sS'wild blueberries'
p1641
S'wild blueberry'
p1642
sS'fd&c colors'
p1643
S'fd&c color'
p1644
sS'extra large eggs'
p1645
S'extra large egg'
p1646
sS'fenugreek seeds'
p1647
S'fenugreek seed'
p1648
sS'asiago and parmesan cheeses'
p1649
S'asiago and parmesan cheese'
p1650
sS'fruit juices'
p1651
S'fruit juice'
p1652
sS'lactic & citric acids'
p1653
S'lactic & citric acid'
p1654
sS'dehydrated red peppers'
p1655
S'dehydrated red pepper'
p1656
sS'black rasins'
p1657
S'black rasin'
p1658
sS'sweet cherries'
p1659
S'sweet cherry'
p1660
sS'annatto & tumeric extracts'
p1661
S'annatto & tumeric extract'
p1662
sS'paprika and chili peppers'
p1663
S'paprika and chili pepper'
p1664
sS'enriched pasta products'
p1665
S'enriched pasta product'
p1666
sS'hydrogenated cottonseed oils'
p1667
S'hydrogenated cottonseed oil'
p1668
sS'urtica dioica leaves'
p1669
S'urtica dioica leaf'
p1670
sS'organic eggs'
p1671
S'organic egg'
p1672
sS'celery seeds'
p1673
S'celery seed'
p1674
sS'organic sprouted soybeans'
p1675
S'organic sprouted soybean'
p1676
sS'white chia seeds'
p1677
S'white chia seed'
p1678
sS'vitamin c natural flavors'
p1679
S'vitamin c natural flavor'
p1680
sS'eucalyptus leaves'
p1681
S'eucalyptus leaf'
p1682
sS'mixed vegetables'
p1683
S'mixed vegetable'
p1684
sS'diacetyl tartaric acid esters of mono and diglycerides'
p1685
S'diacetyl tartaric acid ester of mono and diglycerides'
p1686
sS'dehydrated jalape\xc3\x91o peppers'
p1687
S'dehydrated jalape\xc3\x91o pepper'
p1688
sS'natural fruit flavors'
p1689
S'natural fruit flavor'
p1690
sS'cabbage flakes'
p1691
S'cabbage flake'
p1692
sS'milk cheese cultures'
p1693
S'milk cheese culture'
p1694
sS'peanut flavors'
p1695
S'peanut flavor'
p1696
sS'fresh whole pasteurized eggs'
p1697
S'fresh whole pasteurized egg'
p1698
sS'onion flavorings'
p1699
S'onion flavoring'
p1700
sS'reduced fat asadero cheeses'
p1701
S'reduced fat asadero cheese'
p1702
sS'tortillas'
p1703
S'tortilla'
p1704
sS'melon seeds'
p1705
S'melon seed'
p1706
sS'limes'
p1707
S'lime'
p1708
sS'consists of milk chocolate'
p1709
S'consist of milk chocolate'
p1710
sS'falvorings'
p1711
S'falvoring'
p1712
sS'sugar natural flavors'
p1713
S'sugar natural flavor'
p1714
sS'rolled oates'
p1715
S'rolled oate'
p1716
sS'dehydrated porcini mushrooms'
p1717
S'dehydrated porcini mushroom'
p1718
sS'black truffles'
p1719
S'black truffle'
p1720
sS'rehydrated sweet peppers'
p1721
S'rehydrated sweet pepper'
p1722
sS'shortnings'
p1723
S'shortning'
p1724
sS'limas'
p1725
S'lima'
p1726
sS'annatto and paprika extract colors'
p1727
S'annatto and paprika extract color'
p1728
sS'beef livers'
p1729
S'beef liver'
p1730
sS'red grapes'
p1731
S'red grape'
p1732
sS'live and active cultures'
p1733
S'live and active culture'
p1734
sS'pea protein crisps'
p1735
S'pea protein crisp'
p1736
sS'fully cooked seasoned beef crumbles'
p1737
S'fully cooked seasoned beef crumble'
p1738
sS'phosphates'
p1739
S'phosphate'
p1740
sS'potassium sorbate and sodium benzoates'
p1741
S'potassium sorbate and sodium benzoate'
p1742
sS'anise seeds'
p1743
S'anise seed'
p1744
sS'chili powders'
p1745
S'chili powder'
p1746
sS'natural vanilla extracts'
p1747
S'natural vanilla extract'
p1748
sS'pasteurized process cheddar cheeses'
p1749
S'pasteurized process cheddar cheese'
p1750
sS'natural blueberries'
p1751
S'natural blueberry'
p1752
sS'hot peppers'
p1753
S'hot pepper'
p1754
sS'spices natural flavors'
p1755
S'spices natural flavor'
p1756
sS'bay leaves'
p1757
S'bay leaf'
p1758
sS'dried spring onion flakes'
p1759
S'dried spring onion flake'
p1760
sS'methyl and propyl parabens'
p1761
S'methyl and propyl paraben'
p1762
sS'paprika and spices'
p1763
S'paprika and spice'
p1764
sS'wheat starches'
p1765
S'wheat starch'
p1766
sS'cheese powders'
p1767
S'cheese powder'
p1768
sS'organic vinegars'
p1769
S'organic vinegar'
p1770
sS'citric acid and flavors'
p1771
S'citric acid and flavor'
p1772
sS'onion powder spices'
p1773
S'onion powder spice'
p1774
sS'mussels'
p1775
S'mussel'
p1776
sS'mono- and diglycerideds'
p1777
S'mono- and diglycerided'
p1778
sS'sodium diphosphates'
p1779
S'sodium diphosphate'
p1780
sS'flour blends'
p1781
S'flour blend'
p1782
sS'garlic bell peppers'
p1783
S'garlic bell pepper'
p1784
sS'organic yellow split peas'
p1785
S'organic yellow split pea'
p1786
sS'dehydrated minced onions'
p1787
S'dehydrated minced onion'
p1788
sS'antioxidants'
p1789
S'antioxidant'
p1790
sS'cheddar and monterey jack cheeses'
p1791
S'cheddar and monterey jack cheese'
p1792
sS'hydrolyzed torula and brewers yeasts'
p1793
S'hydrolyzed torula and brewers yeast'
p1794
sS'natural & artificial flavorings'
p1795
S'natural & artificial flavoring'
p1796
sS'natural spice extracts'
p1797
S'natural spice extract'
p1798
sS'salt cultures'
p1799
S'salt culture'
p1800
sS'emulsihers'
p1801
S'emulsiher'
p1802
sS'yeast extract natural flavors'
p1803
S'yeast extract natural flavor'
p1804
sS'ferrous sulfate and b vitamins'
p1805
S'ferrous sulfate and b vitamin'
p1806
sS'nat & art flavors'
p1807
S'nat & art flavor'
p1808
sS'cheeses cultures'
p1809
S'cheeses culture'
p1810
sS'whey protein concentrates'
p1811
S'whey protein concentrate'
p1812
sS'natural honey flavors'
p1813
S'natural honey flavor'
p1814
sS'palm and canola oils with tbhq'
p1815
S'palm and canola oil with tbhq'
p1816
sS'green jalapeno peppers'
p1817
S'green jalapeno pepper'
p1818
sS'white grape juice concentrates'
p1819
S'white grape juice concentrate'
p1820
sS'curry leaves'
p1821
S'curry leaf'
p1822
sS'pasteurized process american cheese american cheeses'
p1823
S'pasteurized process american cheese american cheese'
p1824
sS'acetic acids'
p1825
S'acetic acid'
p1826
sS'rice crisps'
p1827
S'rice crisp'
p1828
sS'malto dextrins'
p1829
S'malto dextrin'
p1830
sS'soybeans'
p1831
S'soybean'
p1832
sS'organic wheat flours'
p1833
S'organic wheat flour'
p1834
sS'senna leaves'
p1835
S'senna leaf'
p1836
sS'natural strawberry flavors'
p1837
S'natural strawberry flavor'
p1838
sS'roasted bell peppers'
p1839
S'roasted bell pepper'
p1840
sS'dehydrated bell peppers'
p1841
S'dehydrated bell pepper'
p1842
sS'red pepper and spices'
p1843
S'red pepper and spice'
p1844
sS'oyster extracts'
p1845
S'oyster extract'
p1846
sS'oat and rice flours'
p1847
S'oat and rice flour'
p1848
sS'sugar partially hydrogenated palm kernel and palm oils'
p1849
S'sugar partially hydrogenated palm kernel and palm oil'
p1850
sS'linden flowers'
p1851
S'linden flower'
p1852
sS'soybean oil and enzymes'
p1853
S'soybean oil and enzyme'
p1854
sS'strawberry and banana purees'
p1855
S'strawberry and banana puree'
p1856
sS'jalape\xc3\x91o peppers'
p1857
S'jalape\xc3\x91o pepper'
p1858
sS'all natural flavors'
p1859
S'all natural flavor'
p1860
sS'soy lecithin natural and artificial flavors'
p1861
S'soy lecithin natural and artificial flavor'
p1862
sS'herbs and spices'
p1863
S'herbs and spice'
p1864
sS'tea extracts'
p1865
S'tea extract'
p1866
sS'natural mint flavors'
p1867
S'natural mint flavor'
p1868
sS'hearts of palm'
p1869
S'heart of palm'
p1870
sS'artificial sweeteners'
p1871
S'artificial sweetener'
p1872
sS'natural spice flavors'
p1873
S'natural spice flavor'
p1874
sS'organic morello cherries'
p1875
S'organic morello cherry'
p1876
sS'orange peppers'
p1877
S'orange pepper'
p1878
sS'unpeeled ground tomatoes'
p1879
S'unpeeled ground tomato'
p1880
sS'crushed red chili peppers'
p1881
S'crushed red chili pepper'
p1882
sS'fresh bananas'
p1883
S'fresh banana'
p1884
sS'raisins agents'
p1885
S'raisins agent'
p1886
sS'mono-and diglycerides'
p1887
S'mono-and diglyceride'
p1888
sS'green coffee beans'
p1889
S'green coffee bean'
p1890
sS'ancho chiles'
p1891
S'ancho chile'
p1892
sS'unbleached enriched flours'
p1893
S'unbleached enriched flour'
p1894
sS'artificial colorings'
p1895
S'artificial coloring'
p1896
sS'vegetable source and silicon dioxide. capsule consists of gelatin'
p1897
S'vegetable source and silicon dioxide. capsule consist of gelatin'
p1898
sS'corn syrup solids and natural flavorings'
p1899
S'corn syrup solids and natural flavoring'
p1900
sS'fresh diced onions'
p1901
S'fresh diced onion'
p1902
sS'poblano peppers'
p1903
S'poblano pepper'
p1904
sS'whole grain flours'
p1905
S'whole grain flour'
p1906
sS'butter flavors'
p1907
S'butter flavor'
p1908
sS'methyl parabens'
p1909
S'methyl paraben'
p1910
sS'chipotle chili peppers'
p1911
S'chipotle chili pepper'
p1912
sS'romano and asiago cheeses'
p1913
S'romano and asiago cheese'
p1914
sS'tocopherol rich extracts'
p1915
S'tocopherol rich extract'
p1916
sS'salt and vegetarian enzymes'
p1917
S'salt and vegetarian enzyme'
p1918
sS'hydrolyzed soy and corn proteins'
p1919
S'hydrolyzed soy and corn protein'
p1920
sS'distilled and red wine vinegars'
p1921
S'distilled and red wine vinegar'
p1922
sS'salt and natural flavorings'
p1923
S'salt and natural flavoring'
p1924
sS'foods'
p1925
S'food'
p1926
sS'ground bay leaves'
p1927
S'ground bay leaf'
p1928
sS'fruit purees'
p1929
S'fruit puree'
p1930
sS'milk ingredients'
p1931
S'milk ingredient'
p1932
sS'milk and soy may contain peanuts and almonds'
p1933
S'milk and soy may contain peanuts and almond'
p1934
sS'natural gums'
p1935
S'natural gum'
p1936
sS'with tocopherols'
p1937
S'with tocopherol'
p1938
sS'green chillies'
p1939
S'green chilly'
p1940
sS'sorrels'
p1941
S'sorrel'
p1942
sS'diphosphates'
p1943
S'diphosphate'
p1944
sS'artificial and natural flavors'
p1945
S'artificial and natural flavor'
p1946
sS'crushed chili peppers'
p1947
S'crushed chili pepper'
p1948
sS'garlics'
p1949
S'garlic'
p1950
sS'concord grape and grape juice concentrates'
p1951
S'concord grape and grape juice concentrate'
p1952
sS'red bell peppers'
p1953
S'red bell pepper'
p1954
sS'propylene glycol monoesters'
p1955
S'propylene glycol monoester'
p1956
sS'dried pineapples'
p1957
S'dried pineapple'
p1958
sS'dried egg yolks'
p1959
S'dried egg yolk'
p1960
sS'natural garlic flavors'
p1961
S'natural garlic flavor'
p1962
sS'vegetable fibers'
p1963
S'vegetable fiber'
p1964
sS'organic hemp seeds'
p1965
S'organic hemp seed'
p1966
sS'jalepeno peppers'
p1967
S'jalepeno pepper'
p1968
sS'salt and ground vanilla beans'
p1969
S'salt and ground vanilla bean'
p1970
sS'garlic red bell peppers'
p1971
S'garlic red bell pepper'
p1972
sS'soy flours'
p1973
S'soy flour'
p1974
sS'organic red tart cherries'
p1975
S'organic red tart cherry'
p1976
sS'natural orange flavors'
p1977
S'natural orange flavor'
p1978
sS'blue crabs'
p1979
S'blue crab'
p1980
sS'organic blueberries'
p1981
S'organic blueberry'
p1982
sS'dehydrated bananas'
p1983
S'dehydrated banana'
p1984
sS'soy mono & diglycerides'
p1985
S'soy mono & diglyceride'
p1986
sS'preservative and artificial colors'
p1987
S'preservative and artificial color'
p1988
sS'antural and artificial flavors'
p1989
S'antural and artificial flavor'
p1990
sS'cooked chicken skins'
p1991
S'cooked chicken skin'
p1992
sS'extractives of red pepper'
p1993
S'extractive of red pepper'
p1994
sS'organic egg yolks'
p1995
S'organic egg yolk'
p1996
sS'citric acids'
p1997
S'citric acid'
p1998
sS'sugar,vegetable oils'
p1999
S'sugar,vegetable oil'
p2000
sS'beans'
p2001
S'bean'
p2002
sS'ground celery seeds'
p2003
S'ground celery seed'
p2004
sS'snaps'
p2005
S'snap'
p2006
sS'modified food starches'
p2007
S'modified food starch'
p2008
sS'natural and artificial maple flavors'
p2009
S'natural and artificial maple flavor'
p2010
sS'vanillin and artificial flavors'
p2011
S'vanillin and artificial flavor'
p2012
sS'papaya leaves'
p2013
S'papaya leaf'
p2014
sS'kumquats'
p2015
S'kumquat'
p2016
sS'fresh diced mangos'
p2017
S'fresh diced mango'
p2018
sS'arbol chiles'
p2019
S'arbol chile'
p2020
sS'traces of sulfites'
p2021
S'trace of sulfites'
p2022
sS'brazil nuts filberts'
p2023
S'brazil nuts filbert'
p2024
sS'organic black carrots'
p2025
S'organic black carrot'
p2026
sS'acidity regulators'
p2027
S'acidity regulator'
p2028
sS'spice and spice extractives'
p2029
S'spice and spice extractive'
p2030
sS'artificial flavos'
p2031
S'artificial flavo'
p2032
sS'dried eggs whites'
p2033
S'dried eggs white'
p2034
sS'organic sweet potatoes'
p2035
S'organic sweet potato'
p2036
sS'natural mesquite smoke flavor and other natural flavors'
p2037
S'natural mesquite smoke flavor and other natural flavor'
p2038
sS'pea crisps'
p2039
S'pea crisp'
p2040
sS'modcarbs'
p2041
S'modcarb'
p2042
sS'sodium acid ammonium bicarbonates'
p2043
S'sodium acid ammonium bicarbonate'
p2044
sS'dehydrated apples'
p2045
S'dehydrated apple'
p2046
sS'sprouted soybeans'
p2047
S'sprouted soybean'
p2048
sS'nondairy creamers'
p2049
S'nondairy creamer'
p2050
sS'distilled monoglycerides'
p2051
S'distilled monoglyceride'
p2052
sS'esters'
p2053
S'ester'
p2054
sS'oleic & stearic acids'
p2055
S'oleic & stearic acid'
p2056
sS'natural and artifical vanilla flavors'
p2057
S'natural and artifical vanilla flavor'
p2058
sS'carmines'
p2059
S'carmine'
p2060
sS'sweet red peppers'
p2061
S'sweet red pepper'
p2062
sS'grape musts'
p2063
S'grape must'
p2064
sS'mono & diglycerides & sodium acid pyrophosphates'
p2065
S'mono & diglycerides & sodium acid pyrophosphate'
p2066
sS'canola and palm kernel oils'
p2067
S'canola and palm kernel oil'
p2068
sS'whole caraway seeds'
p2069
S'whole caraway seed'
p2070
sS'egss'
p2071
S'egs'
p2072
sS'dough condtioners'
p2073
S'dough condtioner'
p2074
sS'egg flavors'
p2075
S'egg flavor'
p2076
sS'marshmallows'
p2077
S'marshmallow'
p2078
sS'sorbic acid and traces of lime'
p2079
S'sorbic acid and trace of lime'
p2080
sS'sulfites'
p2081
S'sulfite'
p2082
sS'apple flakes'
p2083
S'apple flake'
p2084
sS'sodium acid phosphates'
p2085
S'sodium acid phosphate'
p2086
sS'sugar and natural flavorings'
p2087
S'sugar and natural flavoring'
p2088
sS'imitation flavors'
p2089
S'imitation flavor'
p2090
sS'hydrolyzed proteins'
p2091
S'hydrolyzed protein'
p2092
sS'extracts of turmeric'
p2093
S'extract of turmeric'
p2094
sS'yams'
p2095
S'yam'
p2096
sS'skinless chicken thighs'
p2097
S'skinless chicken thigh'
p2098
sS'ground chipotle peppers'
p2099
S'ground chipotle pepper'
p2100
sS'extractives of spice'
p2101
S'extractive of spice'
p2102
sS'spices and seasonings'
p2103
S'spices and seasoning'
p2104
sS'extractives of garlic'
p2105
S'extractive of garlic'
p2106
sS'cheddar and blue cheeses'
p2107
S'cheddar and blue cheese'
p2108
sS'dried vegetables'
p2109
S'dried vegetable'
p2110
sS'stabilizers'
p2111
S'stabilizer'
p2112
sS'extractives of cilantro'
p2113
S'extractive of cilantro'
p2114
sS'soy crisps'
p2115
S'soy crisp'
p2116
sS'pasteurized liquid eggs'
p2117
S'pasteurized liquid egg'
p2118
sS'natural flaors'
p2119
S'natural flaor'
p2120
sS'blueberry extracts'
p2121
S'blueberry extract'
p2122
sS'prunes'
p2123
S'prune'
p2124
sS'dills'
p2125
S'dill'
p2126
sS'organic coconuts'
p2127
S'organic coconut'
p2128
sS'whole flaxseeds'
p2129
S'whole flaxseed'
p2130
sS'natural spices'
p2131
S'natural spice'
p2132
sS'butter natural flavors'
p2133
S'butter natural flavor'
p2134
sS'cooked onions'
p2135
S'cooked onion'
p2136
sS'black teas'
p2137
S'black tea'
p2138
sS'orange oils'
p2139
S'orange oil'
p2140
sS'sliced almonds'
p2141
S'sliced almond'
p2142
sS'celery stalks'
p2143
S'celery stalk'
p2144
sS'tapioca maltodextrins'
p2145
S'tapioca maltodextrin'
p2146
sS'paprika extracts'
p2147
S'paprika extract'
p2148
sS'leaf lettuces'
p2149
S'leaf lettuce'
p2150
sS'cassia leaves'
p2151
S'cassia leaf'
p2152
sS'spices and spice extractives'
p2153
S'spices and spice extractive'
p2154
sS'powdered egg whites'
p2155
S'powdered egg white'
p2156
sS'salt egg whites'
p2157
S'salt egg white'
p2158
sS'dehydrated pinto beans'
p2159
S'dehydrated pinto bean'
p2160
sS'sulphates'
p2161
S'sulphate'
p2162
sS'sugars'
p2163
S'sugar'
p2164
sS'sunflower kernels'
p2165
S'sunflower kernel'
p2166
sS'artificial flavourings'
p2167
S'artificial flavouring'
p2168
sS'sodium pyrophosphates'
p2169
S'sodium pyrophosphate'
p2170
sS'shea oils'
p2171
S'shea oil'
p2172
sS'spices & flavorings'
p2173
S'spices & flavoring'
p2174
sS'soy peanuts'
p2175
S'soy peanut'
p2176
sS'corn flakes'
p2177
S'corn flake'
p2178
sS'dry roasted peanuts'
p2179
S'dry roasted peanut'
p2180
sS'dried garlic onions'
p2181
S'dried garlic onion'
p2182
sS'soy sauces'
p2183
S'soy sauce'
p2184
sS'organic rutabagas'
p2185
S'organic rutabaga'
p2186
sS'cultured nonfat dry milk solids'
p2187
S'cultured nonfat dry milk solid'
p2188
sS'maltodextrin spices'
p2189
S'maltodextrin spice'
p2190
sS'nutmegs'
p2191
S'nutmeg'
p2192
sS'green and red peppers'
p2193
S'green and red pepper'
p2194
sS'fresh onions'
p2195
S'fresh onion'
p2196
sS'corn-cider and distilled vinegars'
p2197
S'corn-cider and distilled vinegar'
p2198
sS'hydrated monoglycerides'
p2199
S'hydrated monoglyceride'
p2200
sS'fermented wheat and soybeans'
p2201
S'fermented wheat and soybean'
p2202
sS'protein concentrates'
p2203
S'protein concentrate'
p2204
sS'apricot kernels'
p2205
S'apricot kernel'
p2206
sS'cloves'
p2207
S'clove'
p2208
sS'extracts of annatto and tumeric'
p2209
S'extract of annatto and tumeric'
p2210
sS'roasted onions'
p2211
S'roasted onion'
p2212
sS'tricalcium phosphates'
p2213
S'tricalcium phosphate'
p2214
sS'peppermint leaves'
p2215
S'peppermint leaf'
p2216
sS'chiles'
p2217
S'chile'
p2218
sS'cabbage leaves'
p2219
S'cabbage leaf'
p2220
sS'herring fillets'
p2221
S'herring fillet'
p2222
sS'fresh eggs'
p2223
S'fresh egg'
p2224
sS'salt dried onions'
p2225
S'salt dried onion'
p2226
sS'elderberries'
p2227
S'elderberry'
p2228
sS'beef and pork crumbles'
p2229
S'beef and pork crumble'
p2230
sS'almonds cashews'
p2231
S'almonds cashew'
p2232
sS'olives oils'
p2233
S'olives oil'
p2234
sS'concentrated juices of tomatoes'
p2235
S'concentrated juice of tomatoes'
p2236
sS'spices flavorings'
p2237
S'spices flavoring'
p2238
sS'caramel color and artificial flavors'
p2239
S'caramel color and artificial flavor'
p2240
sS'white onions'
p2241
S'white onion'
p2242
sS'natural coconut flavors'
p2243
S'natural coconut flavor'
p2244
sS'enzymes onions'
p2245
S'enzymes onion'
p2246
sS'organic whole soybeans'
p2247
S'organic whole soybean'
p2248
sS'sri lanka black teas'
p2249
S'sri lanka black tea'
p2250
sS'salt and natural flavors'
p2251
S'salt and natural flavor'
p2252
sS'freeze dried raspberries'
p2253
S'freeze dried raspberry'
p2254
sS'spices and spice extracts'
p2255
S'spices and spice extract'
p2256
sS'lemon flavors with other natural flavors'
p2257
S'lemon flavor with other natural flavors'
p2258
sS'calcium phosphates'
p2259
S'calcium phosphate'
p2260
sS'cajun corn sticks'
p2261
S'cajun corn stick'
p2262
sS'culture enzymes'
p2263
S'culture enzyme'
p2264
sS'natual flavors'
p2265
S'natual flavor'
p2266
sS'apple cider concentrate and spices'
p2267
S'apple cider concentrate and spice'
p2268
sS'vegan natural flavors'
p2269
S'vegan natural flavor'
p2270
sS'cheese cultutres'
p2271
S'cheese cultutre'
p2272
sS'tea leaves'
p2273
S'tea leaf'
p2274
sS'sodium carbonates'
p2275
S'sodium carbonate'
p2276
sS'natural vegetable flavors'
p2277
S'natural vegetable flavor'
p2278
sS'fermented soybeans'
p2279
S'fermented soybean'
p2280
sS'organic dried bananas'
p2281
S'organic dried banana'
p2282
sS'sea salts'
p2283
S'sea salt'
p2284
sS'hydrogenated corn proteins'
p2285
S'hydrogenated corn protein'
p2286
sS'esters of fatty acid'
p2287
S'ester of fatty acid'
p2288
sS'dried beets'
p2289
S'dried beet'
p2290
sS'bicarbonates'
p2291
S'bicarbonate'
p2292
sS'roasted green bell peppers'
p2293
S'roasted green bell pepper'
p2294
sS'habenero peppers'
p2295
S'habenero pepper'
p2296
sS'water extracted orange juice concentrates'
p2297
S'water extracted orange juice concentrate'
p2298
sS'wheat bagels'
p2299
S'wheat bagel'
p2300
sS'pre-cooked scrambled egg whites'
p2301
S'pre-cooked scrambled egg white'
p2302
sS'oat flours'
p2303
S'oat flour'
p2304
sS'dried apples'
p2305
S'dried apple'
p2306
sS'natural & artifical flavors'
p2307
S'natural & artifical flavor'
p2308
sS'natural berry flavors'
p2309
S'natural berry flavor'
p2310
sS'natural flvors'
p2311
S'natural flvor'
p2312
sS'lime leaves'
p2313
S'lime leaf'
p2314
sS'black eyed peas'
p2315
S'black eyed pea'
p2316
sS'arrowroot flours'
p2317
S'arrowroot flour'
p2318
sS'cajun spices'
p2319
S'cajun spice'
p2320
sS'sugar flavorings'
p2321
S'sugar flavoring'
p2322
sS'cooked chicken tenderloins'
p2323
S'cooked chicken tenderloin'
p2324
sS'algins'
p2325
S'algin'
p2326
sS'organic cacao beans'
p2327
S'organic cacao bean'
p2328
sS'aronia berry juice concentrates'
p2329
S'aronia berry juice concentrate'
p2330
sS'flowers'
p2331
S'flower'
p2332
sS'stabilizer gums'
p2333
S'stabilizer gum'
p2334
sS'vidalia onions'
p2335
S'vidalia onion'
p2336
sS'oats'
p2337
S'oat'
p2338
sS'black tea extracts'
p2339
S'black tea extract'
p2340
sS'natural mold inhibitors'
p2341
S'natural mold inhibitor'
p2342
sS'certified organic ingredients'
p2343
S'certified organic ingredient'
p2344
sS'apples'
p2345
S'apple'
p2346
sS'fruits'
p2347
S'fruit'
p2348
sS'millet flours'
p2349
S'millet flour'
p2350
sS'nettle leaves'
p2351
S'nettle leaf'
p2352
sS'valencia oranges'
p2353
S'valencia orange'
p2354
sS'organic roasted red peppers'
p2355
S'organic roasted red pepper'
p2356
sS'nat.& art. flavors'
p2357
S'nat.& art. flavor'
p2358
sS'freeze dried mangos'
p2359
S'freeze dried mango'
p2360
sS'mandarin oranges'
p2361
S'mandarin orange'
p2362
sS'milk artificial flavors'
p2363
S'milk artificial flavor'
p2364
sS'habanero chiles'
p2365
S'habanero chile'
p2366
sS'sugared egg yolks'
p2367
S'sugared egg yolk'
p2368
sS'salt flavors'
p2369
S'salt flavor'
p2370
sS'sea salt & peppers'
p2371
S'sea salt & pepper'
p2372
sS'sugar and spices'
p2373
S'sugar and spice'
p2374
sS'boldo leaves'
p2375
S'boldo leaf'
p2376
sS'organic and fair trade certified hibiscus flowers'
p2377
S'organic and fair trade certified hibiscus flower'
p2378
sS'natural sheep casings'
p2379
S'natural sheep casing'
p2380
sS'plant sources'
p2381
S'plant source'
p2382
sS'carotenes'
p2383
S'carotene'
p2384
sS'alfalfa leaves'
p2385
S'alfalfa leaf'
p2386
sS'green teas'
p2387
S'green tea'
p2388
sS'fresh tomatillos'
p2389
S'fresh tomatillo'
p2390
sS'boneless skinless chicken breasts with rib meat'
p2391
S'boneless skinless chicken breast with rib meat'
p2392
sS'cinnamon chips'
p2393
S'cinnamon chip'
p2394
sS'celery peppers'
p2395
S'celery pepper'
p2396
sS'tamarind extracts'
p2397
S'tamarind extract'
p2398
sS'organic red peppers'
p2399
S'organic red pepper'
p2400
sS'vegetable juices'
p2401
S'vegetable juice'
p2402
sS'dough conditions'
p2403
S'dough condition'
p2404
sS'whey proteins'
p2405
S'whey protein'
p2406
sS'raisins'
p2407
S'raisin'
p2408
sS'paprika and turmeric extracts'
p2409
S'paprika and turmeric extract'
p2410
sS'glutamates'
p2411
S'glutamate'
p2412
sS'organic red bell peppers'
p2413
S'organic red bell pepper'
p2414
sS'non-gmo soybeans'
p2415
S'non-gmo soybean'
p2416
sS'lemon extracts'
p2417
S'lemon extract'
p2418
sS'i. cysteine enzymes'
p2419
S'i. cysteine enzyme'
p2420
sS'ground sesame seeds'
p2421
S'ground sesame seed'
p2422
sS'oat and honey clusters'
p2423
S'oat and honey cluster'
p2424
sS'paprika and extractives of paprika'
p2425
S'paprika and extractive of paprika'
p2426
sS'natural flavor and artificial flavors'
p2427
S'natural flavor and artificial flavor'
p2428
sS'hatch green chile peppers'
p2429
S'hatch green chile pepper'
p2430
sS'glazing agents'
p2431
S'glazing agent'
p2432
sS'hulled sesame seeds'
p2433
S'hulled sesame seed'
p2434
sS'natural an artificial flavors'
p2435
S'natural an artificial flavor'
p2436
sS'red chili peppers'
p2437
S'red chili pepper'
p2438
sS'beef flavors'
p2439
S'beef flavor'
p2440
sS'pasteurized egg yolks'
p2441
S'pasteurized egg yolk'
p2442
sS'potassium chlorides'
p2443
S'potassium chloride'
p2444
sS'cane juices'
p2445
S'cane juice'
p2446
sS'organic pumpkin seeds'
p2447
S'organic pumpkin seed'
p2448
sS'salt natural and artificial flavors'
p2449
S'salt natural and artificial flavor'
p2450
sS'seedless raisins'
p2451
S'seedless raisin'
p2452
sS'partially hydrogenated vegetable shortenings'
p2453
S'partially hydrogenated vegetable shortening'
p2454
sS'lactobacilli'
p2455
S'lactobacillus'
p2456
sS'cheese cultureds'
p2457
S'cheese cultured'
p2458
sS'propylene glycol esters of fatty acids'
p2459
S'propylene glycol ester of fatty acids'
p2460
sS'pasteurized milk cultures'
p2461
S'pasteurized milk culture'
p2462
sS'chocolate rice crisps'
p2463
S'chocolate rice crisp'
p2464
sS'dehydrated jalapeno peppers'
p2465
S'dehydrated jalapeno pepper'
p2466
sS'white truffles'
p2467
S'white truffle'
p2468
sS'cellulose and xanthan gums'
p2469
S'cellulose and xanthan gum'
p2470
sS'cocoas'
p2471
S'cocoa'
p2472
sS'vegetable shortenings'
p2473
S'vegetable shortening'
p2474
sS'natural and artificial flvors'
p2475
S'natural and artificial flvor'
p2476
sS'peaches'
p2477
S'peach'
p2478
sS'partially hydrogenated cottonseed & soybean oils'
p2479
S'partially hydrogenated cottonseed & soybean oil'
p2480
sS'whole wheat berries'
p2481
S'whole wheat berry'
p2482
sS'skimmed milk powders'
p2483
S'skimmed milk powder'
p2484
sS'arbol peppers'
p2485
S'arbol pepper'
p2486
sS'cherry juice concentrates'
p2487
S'cherry juice concentrate'
p2488
sS'kiwi fruits'
p2489
S'kiwi fruit'
p2490
sS'extracts of annatto'
p2491
S'extract of annatto'
p2492
sS'breadcrumbs'
p2493
S'breadcrumb'
p2494
sS'extracts of lemon'
p2495
S'extract of lemon'
p2496
sS'ammonium carbonates'
p2497
S'ammonium carbonate'
p2498
sS'grape and cherry juice concentrates'
p2499
S'grape and cherry juice concentrate'
p2500
sS'gold pineapples'
p2501
S'gold pineapple'
p2502
sS'partially hydrogenated soybean andor cottonseed oils'
p2503
S'partially hydrogenated soybean andor cottonseed oil'
p2504
sS'split peas'
p2505
S'split pea'
p2506
sS'organic evaporated cane juices'
p2507
S'organic evaporated cane juice'
p2508
sS'schizandra berries'
p2509
S'schizandra berry'
p2510
sS'plums'
p2511
S'plum'
p2512
sS'no hydrogenated fats'
p2513
S'no hydrogenated fat'
p2514
sS'salt emulsifiers'
p2515
S'salt emulsifier'
p2516
sS'hydrolized soy and corn proteins'
p2517
S'hydrolized soy and corn protein'
p2518
sS'drum dried blueberries'
p2519
S'drum dried blueberry'
p2520
sS'concentrated tomatoes'
p2521
S'concentrated tomato'
p2522
sS'liquid whole eggs'
p2523
S'liquid whole egg'
p2524
sS'soy and wheat. may contain eggs'
p2525
S'soy and wheat. may contain egg'
p2526
sS'cardamom pods'
p2527
S'cardamom pod'
p2528
sS'green tea leaves'
p2529
S'green tea leaf'
p2530
sS'enriched unbleached wheat flours'
p2531
S'enriched unbleached wheat flour'
p2532
sS'breaded chicken patties'
p2533
S'breaded chicken patty'
p2534
sS'spearmint leaves'
p2535
S'spearmint leaf'
p2536
sS'organic cold-milled flax seeds'
p2537
S'organic cold-milled flax seed'
p2538
sS'blackberry leaves'
p2539
S'blackberry leaf'
p2540
sS'roasted tomatoes'
p2541
S'roasted tomato'
p2542
sS'soybeans and flax seeds'
p2543
S'soybeans and flax seed'
p2544
sS'soybean and / or cottonseed oils'
p2545
S'soybean and / or cottonseed oil'
p2546
sS'stabilisers'
p2547
S'stabiliser'
p2548
sS'iron dioxides'
p2549
S'iron dioxide'
p2550
sS'black berries'
p2551
S'black berry'
p2552
sS'cheddar and mozzarella cheeses'
p2553
S'cheddar and mozzarella cheese'
p2554
sS'dry egg whites'
p2555
S'dry egg white'
p2556
sS'wild strawberries'
p2557
S'wild strawberry'
p2558
sS'sugar partially hydrogenated vegetable oils'
p2559
S'sugar partially hydrogenated vegetable oil'
p2560
sS'custards'
p2561
S'custard'
p2562
sS'organic nettles'
p2563
S'organic nettle'
p2564
sS'spices and colorings'
p2565
S'spices and coloring'
p2566
sS'natural and artificial flavours'
p2567
S'natural and artificial flavour'
p2568
sS'cultured organic soybeans'
p2569
S'cultured organic soybean'
p2570
sS'pistachioes'
p2571
S'pistachio'
p2572
sS'natural mango flavors'
p2573
S'natural mango flavor'
p2574
sS'sodium nitrites'
p2575
S'sodium nitrite'
p2576
sS'mixed carotenes'
p2577
S'mixed carotene'
p2578
sS'natural rice dextrins'
p2579
S'natural rice dextrin'
p2580
sS'flavorings and colorings'
p2581
S'flavorings and coloring'
p2582
sS'organic whole psyllium husks'
p2583
S'organic whole psyllium husk'
p2584
sS'colours'
p2585
S'colour'
p2586
sS'less than 0.5% of: natural flavors'
p2587
S'less than 0.5% of: natural flavor'
p2588
sS'natural cheese flavors'
p2589
S'natural cheese flavor'
p2590
sS'l-cysteine enzymes'
p2591
S'l-cysteine enzyme'
p2592
sS'elder flowers'
p2593
S'elder flower'
p2594
sS'whole sprouted grains of red wheat berries'
p2595
S'whole sprouted grain of red wheat berries'
p2596
sS'ground mustard seeds'
p2597
S'ground mustard seed'
p2598
sS'mono- and diglycerides'
p2599
S'mono- and diglyceride'
p2600
sS'natural. and artificial flavors'
p2601
S'natural. and artificial flavor'
p2602
sS'textured vegetable proteins'
p2603
S'textured vegetable protein'
p2604
sS'roasted serrano peppers'
p2605
S'roasted serrano pepper'
p2606
sS'citric acid and tbhq preservatives'
p2607
S'citric acid and tbhq preservative'
p2608
sS'whole oats'
p2609
S'whole oat'
p2610
sS'usp kosher gelatin capsules'
p2611
S'usp kosher gelatin capsule'
p2612
sS'organic figs'
p2613
S'organic fig'
p2614
sS'fried potatoes'
p2615
S'fried potato'
p2616
sS'leaveners'
p2617
S'leavener'
p2618
sS'natural & artificial mango flavors'
p2619
S'natural & artificial mango flavor'
p2620
sS'extractives of turmeric'
p2621
S'extractive of turmeric'
p2622
sS'canola oils'
p2623
S'canola oil'
p2624
sS'pork seasonings'
p2625
S'pork seasoning'
p2626
sS'milled flax seeds'
p2627
S'milled flax seed'
p2628
sS'iron oxides'
p2629
S'iron oxide'
p2630
sS'dates'
p2631
S'date'
p2632
sS'natural and artifical flavors'
p2633
S'natural and artifical flavor'
p2634
sS'organic caraway seeds'
p2635
S'organic caraway seed'
p2636
sS'soyabeans'
p2637
S'soyabean'
p2638
sS'purees'
p2639
S'puree'
p2640
sS'ferrous sulfates'
p2641
S'ferrous sulfate'
p2642
sS'antioxidents'
p2643
S'antioxident'
p2644
sS'fillets of anchovies'
p2645
S'fillet of anchovies'
p2646
sS'concentrates'
p2647
S'concentrate'
p2648
sS'cheese enzymes'
p2649
S'cheese enzyme'
p2650
sS'whole milk mozzarella cheeses'
p2651
S'whole milk mozzarella cheese'
p2652
sS'anaheim chiles'
p2653
S'anaheim chile'
p2654
sS'palm fruit and canola oils'
p2655
S'palm fruit and canola oil'
p2656
sS'black pepper and chili peppers'
p2657
S'black pepper and chili pepper'
p2658
sS'100% vegetarian capsules'
p2659
S'100% vegetarian capsule'
p2660
sS'soy beans'
p2661
S'soy bean'
p2662
sS'hydrogenated palm and soybean oils'
p2663
S'hydrogenated palm and soybean oil'
p2664
sS'natural clam flavors'
p2665
S'natural clam flavor'
p2666
sS'wheat ingredients'
p2667
S'wheat ingredient'
p2668
sS'lactase enzymes'
p2669
S'lactase enzyme'
p2670
sS'olives'
p2671
S'olive'
p2672
sS'fosfatos de sodio'
p2673
S'fosfato de sodio'
p2674
sS'all natural popcorns'
p2675
S'all natural popcorn'
p2676
sS'scrambled eggs'
p2677
S'scrambled egg'
p2678
sS'extractives of paprika and spices'
p2679
S'extractive of paprika and spices'
p2680
sS'glycerins'
p2681
S'glycerin'
p2682
sS'ancho chili peppers'
p2683
S'ancho chili pepper'
p2684
sS'artichokes'
p2685
S'artichoke'
p2686
sS'seasoned vegetables'
p2687
S'seasoned vegetable'
p2688
sS'yeasts'
p2689
S'yeast'
p2690
sS'dried figs with potassium sorbate and sulfur dioxide'
p2691
S'dried fig with potassium sorbate and sulfur dioxide'
p2692
sS'nigella seeds'
p2693
S'nigella seed'
p2694
sS'romano & parmesan cheeses'
p2695
S'romano & parmesan cheese'
p2696
sS'caramel color natural flavors'
p2697
S'caramel color natural flavor'
p2698
sS'spice & spice extractives'
p2699
S'spice & spice extractive'
p2700
sS'red sweet peppers'
p2701
S'red sweet pepper'
p2702
sS'salt less than 2% of: spices'
p2703
S'salt less than 2% of: spice'
p2704
sS'organic black peppers'
p2705
S'organic black pepper'
p2706
sS'fours'
p2707
S'four'
p2708
sS'sulfating agents'
p2709
S'sulfating agent'
p2710
sS'may contain sulfites'
p2711
S'may contain sulfite'
p2712
sS'orange pekoe & pekoe cut black teas'
p2713
S'orange pekoe & pekoe cut black tea'
p2714
sS'corn tortillas'
p2715
S'corn tortilla'
p2716
sS'roasted tomatillos'
p2717
S'roasted tomatillo'
p2718
sS'chile peppers'
p2719
S'chile pepper'
p2720
sS'chipotle peppers'
p2721
S'chipotle pepper'
p2722
sS'eaters'
p2723
S'eater'
p2724
sS'preservative enzymes'
p2725
S'preservative enzyme'
p2726
sS'organic black peppercorns'
p2727
S'organic black peppercorn'
p2728
sS'potato shells'
p2729
S'potato shell'
p2730
sS'baby corns'
p2731
S'baby corn'
p2732
sS'creams'
p2733
S'cream'
p2734
sS'dehydrated peppers'
p2735
S'dehydrated pepper'
p2736
sS'celery and onions'
p2737
S'celery and onion'
p2738
sS'mono-diglycerides of fatty acids'
p2739
S'mono-diglyceride of fatty acids'
p2740
sS'red kidney beans'
p2741
S'red kidney bean'
p2742
sS'brazilnuts'
p2743
S'brazilnut'
p2744
sS'chilpotle peppers'
p2745
S'chilpotle pepper'
p2746
sS'thyme leaves'
p2747
S'thyme leaf'
p2748
sS'emulsifying agents'
p2749
S'emulsifying agent'
p2750
sS'natural citrus flavors'
p2751
S'natural citrus flavor'
p2752
sS'parmesan & romano cheeses'
p2753
S'parmesan & romano cheese'
p2754
sS'celery powders'
p2755
S'celery powder'
p2756
sS'malic acids'
p2757
S'malic acid'
p2758
sS'organic carrots'
p2759
S'organic carrot'
p2760
sS'vegetable emulsifiers'
p2761
S'vegetable emulsifier'
p2762
sS'blue #2 lakes'
p2763
S'blue #2 lake'
p2764
sS'candies'
p2765
S'candy'
p2766
sS'chocolate cookie crumbs'
p2767
S'chocolate cookie crumb'
p2768
sS'partially hydrogenated palm kernel and soybean oils'
p2769
S'partially hydrogenated palm kernel and soybean oil'
p2770
sS'sodium caseinates'
p2771
S'sodium caseinate'
p2772
sS'organic white grape juice concentrates'
p2773
S'organic white grape juice concentrate'
p2774
sS'sprouts'
p2775
S'sprout'
p2776
sS'mustard extracts'
p2777
S'mustard extract'
p2778
sS'red beets'
p2779
S'red beet'
p2780
sS'hydrogenated veg. oils'
p2781
S'hydrogenated veg. oil'
p2782
sS'cooked enriched pasta products'
p2783
S'cooked enriched pasta product'
p2784
sS'folic acid and enzymes'
p2785
S'folic acid and enzyme'
p2786
sS'natural and artificial caramel flavors'
p2787
S'natural and artificial caramel flavor'
p2788
sS'sodium phoshates'
p2789
S'sodium phoshate'
p2790
sS'active bacterial cultures'
p2791
S'active bacterial culture'
p2792
sS'distilled vinegars'
p2793
S'distilled vinegar'
p2794
sS'naturalflavors'
p2795
S'naturalflavor'
p2796
sS'vitamin c and artificial colors'
p2797
S'vitamin c and artificial color'
p2798
sS'coconuts'
p2799
S'coconut'
p2800
sS'drum dried cranberries'
p2801
S'drum dried cranberry'
p2802
sS'raspberry leaves'
p2803
S'raspberry leaf'
p2804
sS'chocolaty chips'
p2805
S'chocolaty chip'
p2806
sS'artificial vanilla flavorings'
p2807
S'artificial vanilla flavoring'
p2808
sS'cacao seeds'
p2809
S'cacao seed'
p2810
sS'brown rice crisps'
p2811
S'brown rice crisp'
p2812
sS'sprouted sesame seeds'
p2813
S'sprouted sesame seed'
p2814
sS'garlic cloves'
p2815
S'garlic clove'
p2816
sS'dehydrated green onions'
p2817
S'dehydrated green onion'
p2818
sS'diced apricots'
p2819
S'diced apricot'
p2820
sS'sodium and ammonium bicarbonates'
p2821
S'sodium and ammonium bicarbonate'
p2822
sS'arabic natural flavors'
p2823
S'arabic natural flavor'
p2824
sS'cinnamon and cloves'
p2825
S'cinnamon and clove'
p2826
sS'green jalapenos'
p2827
S'green jalapeno'
p2828
sS'sodium acid pyrophosphates'
p2829
S'sodium acid pyrophosphate'
p2830
sS'palm and hydrogenated cottonseed oils'
p2831
S'palm and hydrogenated cottonseed oil'
p2832
sS'ground cloves'
p2833
S'ground clove'
p2834
sS'organic raspberry leaves'
p2835
S'organic raspberry leaf'
p2836
sS'organic juices'
p2837
S'organic juice'
p2838
sS'natural and aritificial flavors'
p2839
S'natural and aritificial flavor'
p2840
sS'soybean oil dehydrated onions'
p2841
S'soybean oil dehydrated onion'
p2842
sS'dehydrated vegetables'
p2843
S'dehydrated vegetable'
p2844
sS'glycerides'
p2845
S'glyceride'
p2846
sS'chilli peppers'
p2847
S'chilli pepper'
p2848
sS'grilled eggplants'
p2849
S'grilled eggplant'
p2850
sS'sodium acetates'
p2851
S'sodium acetate'
p2852
sS'monodiglycerides'
p2853
S'monodiglyceride'
p2854
sS'organic natural flavors'
p2855
S'organic natural flavor'
p2856
sS'llex paraguariensis leaf extractives'
p2857
S'llex paraguariensis leaf extractive'
p2858
sS'colorants'
p2859
S'colorant'
p2860
sS'wheat and eggs'
p2861
S'wheat and egg'
p2862
sS'soybean and palm oils'
p2863
S'soybean and palm oil'
p2864
sS'pimentoes'
p2865
S'pimento'
p2866
sS'natural casings'
p2867
S'natural casing'
p2868
sS'lime oils'
p2869
S'lime oil'
p2870
sS'comfrey leaves'
p2871
S'comfrey leaf'
p2872
sS'almods'
p2873
S'almod'
p2874
sS'sweetened cranberries'
p2875
S'sweetened cranberry'
p2876
sS'powdered eggs'
p2877
S'powdered egg'
p2878
sS'organic soybeans'
p2879
S'organic soybean'
p2880
sS'organic tomatoes'
p2881
S'organic tomato'
p2882
sS'food colorings'
p2883
S'food coloring'
p2884
sS'eschalots'
p2885
S'eschalot'
p2886
sS'coconut shreds'
p2887
S'coconut shred'
p2888
sS'high oleic sunflower oils'
p2889
S'high oleic sunflower oil'
p2890
sS'red chilli peppers'
p2891
S'red chilli pepper'
p2892
sS'strawberry fillings'
p2893
S'strawberry filling'
p2894
sS'raisings'
p2895
S'raising'
p2896
sS'freeze dried blueberries'
p2897
S'freeze dried blueberry'
p2898
sS'dehydrated tomatoes'
p2899
S'dehydrated tomato'
p2900
sS'natural gum stabilizers'
p2901
S'natural gum stabilizer'
p2902
sS'meat ingredients'
p2903
S'meat ingredient'
p2904
sS'disodium 5-ribonucleotides'
p2905
S'disodium 5-ribonucleotide'
p2906
sS'cracked whole wheat grains'
p2907
S'cracked whole wheat grain'
p2908
sS'pineapple & oranges'
p2909
S'pineapple & orange'
p2910
sS'strawberry flavored bits'
p2911
S'strawberry flavored bit'
p2912
sS'crustaceans'
p2913
S'crustacean'
p2914
sS'artificial favors'
p2915
S'artificial favor'
p2916
sS'guar & xanthan gums'
p2917
S'guar & xanthan gum'
p2918
sS'electrolytes'
p2919
S'electrolyte'
p2920
sS'red bell pepper. topping: peanuts'
p2921
S'red bell pepper. topping: peanut'
p2922
sS'grape tomatoes'
p2923
S'grape tomato'
p2924
sS'maltodextrin and natural flavors'
p2925
S'maltodextrin and natural flavor'
p2926
sS'guar and xanthan gums'
p2927
S'guar and xanthan gum'
p2928
sS'baking sodas'
p2929
S'baking soda'
p2930
sS'anaheim peppers'
p2931
S'anaheim pepper'
p2932
sS'soy lecithin. natural flavors'
p2933
S'soy lecithin. natural flavor'
p2934
sS'green peppers'
p2935
S'green pepper'
p2936
sS'dough condmoners'
p2937
S'dough condmoner'
p2938
sS'extracts of turmeric and annatto'
p2939
S'extract of turmeric and annatto'
p2940
sS'hydrogenated canola and cottonseed oils'
p2941
S'hydrogenated canola and cottonseed oil'
p2942
sS'water and concentrated juices of apples'
p2943
S'water and concentrated juice of apples'
p2944
sS'nutrients'
p2945
S'nutrient'
p2946
sS'organic brown rice crisps'
p2947
S'organic brown rice crisp'
p2948
sS'propylene glycol mono & diesters of fatty acids'
p2949
S'propylene glycol mono & diester of fatty acids'
p2950
sS'salt organic onions'
p2951
S'salt organic onion'
p2952
sS'organic dates'
p2953
S'organic date'
p2954
sS'partially hydrogenated soybean or cottonseed oils'
p2955
S'partially hydrogenated soybean or cottonseed oil'
p2956
sS'seasoned cooked beef steak strips'
p2957
S'seasoned cooked beef steak strip'
p2958
sS'organic lemon peels'
p2959
S'organic lemon peel'
p2960
sS'natuiral flavors'
p2961
S'natuiral flavor'
p2962
sS'maple flavors'
p2963
S'maple flavor'
p2964
sS'green chile peppers'
p2965
S'green chile pepper'
p2966
sS'non-fat milk solids'
p2967
S'non-fat milk solid'
p2968
sS'egg proteins'
p2969
S'egg protein'
p2970
sS'meringues'
p2971
S'meringue'
p2972
sS'sulfates'
p2973
S'sulfate'
p2974
sS'yeats'
p2975
S'yeat'
p2976
sS'scotch bonnet peppers'
p2977
S'scotch bonnet pepper'
p2978
sS'palm fats'
p2979
S'palm fat'
p2980
sS'sucrose esters of fatty acids'
p2981
S'sucrose ester of fatty acids'
p2982
sS'pumpkin seeds'
p2983
S'pumpkin seed'
p2984
sS'bilberry extracts'
p2985
S'bilberry extract'
p2986
sS'freeze dried chives'
p2987
S'freeze dried chive'
p2988
sS'esters of rosin'
p2989
S'ester of rosin'
p2990
sS'pickles'
p2991
S'pickle'
p2992
sS'roasted poblano peppers'
p2993
S'roasted poblano pepper'
p2994
sS'fd&c yellows'
p2995
S'fd&c yellow'
p2996
sS'mixed tocopheryls'
p2997
S'mixed tocopheryl'
p2998
sS'pink beans'
p2999
S'pink bean'
p3000
sS'lentils'
p3001
S'lentil'
p3002
sS'mold inhibitors'
p3003
S'mold inhibitor'
p3004
sS'dill flavorings'
p3005
S'dill flavoring'
p3006
sS'morello cherries'
p3007
S'morello cherry'
p3008
sS'carrot and blueberry juices'
p3009
S'carrot and blueberry juice'
p3010
sS'may contain traces of sesame seeds'
p3011
S'may contain trace of sesame seeds'
p3012
sS'partially hydrogenated cottonseed and rapeseed oils'
p3013
S'partially hydrogenated cottonseed and rapeseed oil'
p3014
sS'rosehips'
p3015
S'rosehip'
p3016
sS'gum stabilizers'
p3017
S'gum stabilizer'
p3018
sS'natu-ral flavors'
p3019
S'natu-ral flavor'
p3020
sS'prebiotics'
p3021
S'prebiotic'
p3022
sS'organic vegetable oils'
p3023
S'organic vegetable oil'
p3024
sS'tilia flowers'
p3025
S'tilia flower'
p3026
sS'vegetable ils'
p3027
S'vegetable il'
p3028
sS'organic whole eggs'
p3029
S'organic whole egg'
p3030
sS'grapefruit and lime concentrates'
p3031
S'grapefruit and lime concentrate'
p3032
sS'sugar cane syrups'
p3033
S'sugar cane syrup'
p3034
sS'color. natural flavors'
p3035
S'color. natural flavor'
p3036
sS'natural aromas'
p3037
S'natural aroma'
p3038
sS'organic chili peppers'
p3039
S'organic chili pepper'
p3040
sS'water chestnuts'
p3041
S'water chestnut'
p3042
sS'natural and artficial flavors'
p3043
S'natural and artficial flavor'
p3044
sS'organic parmesan and organic romano cheeses'
p3045
S'organic parmesan and organic romano cheese'
p3046
sS'sauteed vegetables'
p3047
S'sauteed vegetable'
p3048
sS'soy and olive oils'
p3049
S'soy and olive oil'
p3050
sS'soy lecithins'
p3051
S'soy lecithin'
p3052
sS'polishing agents'
p3053
S'polishing agent'
p3054
sS'a milk derivetives'
p3055
S'a milk derivetive'
p3056
sS'pure coconut oils'
p3057
S'pure coconut oil'
p3058
sS'fillings'
p3059
S'filling'
p3060
sS'peach juices'
p3061
S'peach juice'
p3062
sS'prune purees'
p3063
S'prune puree'
p3064
sS'organic lettuces'
p3065
S'organic lettuce'
p3066
sS'biscuits'
p3067
S'biscuit'
p3068
sS'natural coconut & pineapple flavors'
p3069
S'natural coconut & pineapple flavor'
p3070
sS'water and concentrated juices of tomatoes'
p3071
S'water and concentrated juice of tomatoes'
p3072
sS'gums'
p3073
S'gum'
p3074
sS'red jalapenos'
p3075
S'red jalapeno'
p3076
sS'sweet bell peppers'
p3077
S'sweet bell pepper'
p3078
sS'anti oxidants'
p3079
S'anti oxidant'
p3080
sS'onion stocks'
p3081
S'onion stock'
p3082
sS'organic bay leaves'
p3083
S'organic bay leaf'
p3084
sS'partially defatted peanuts'
p3085
S'partially defatted peanut'
p3086
sS'peas green beans'
p3087
S'peas green bean'
p3088
sS'guava puree concentrates'
p3089
S'guava puree concentrate'
p3090
sS'organic green peas'
p3091
S'organic green pea'
p3092
sS'cooked beef patty crumbles'
p3093
S'cooked beef patty crumble'
p3094
sS'spices and flavors'
p3095
S'spices and flavor'
p3096
sS'whites'
p3097
S'white'
p3098
sS'fermented black beans'
p3099
S'fermented black bean'
p3100
sS'whole grains'
p3101
S'whole grain'
p3102
sS'red raspberries'
p3103
S'red raspberry'
p3104
sS'hydrolyzed torula yeast proteins'
p3105
S'hydrolyzed torula yeast protein'
p3106
sS'peepers'
p3107
S'peeper'
p3108
sS'whole egss'
p3109
S'whole egs'
p3110
sS'red chilis'
p3111
S'red chili'
p3112
sS'vegetarian chicken flavors'
p3113
S'vegetarian chicken flavor'
p3114
sS'mixed spices'
p3115
S'mixed spice'
p3116
sS'mineral nutrients'
p3117
S'mineral nutrient'
p3118
sS'apple juice concentrates'
p3119
S'apple juice concentrate'
p3120
sS'baby lettuces'
p3121
S'baby lettuce'
p3122
sS'citric and malic acids'
p3123
S'citric and malic acid'
p3124
sS'red and black raspberries'
p3125
S'red and black raspberry'
p3126
sS'granular & romano cheeses'
p3127
S'granular & romano cheese'
p3128
sS'lions'
p3129
S'lion'
p3130
sS'paprika jalapeno peppers'
p3131
S'paprika jalapeno pepper'
p3132
sS'cultures'
p3133
S'culture'
p3134
sS'graham crumbs'
p3135
S'graham crumb'
p3136
sS'water and concentrated juices of white grapes'
p3137
S'water and concentrated juice of white grapes'
p3138
sS'natural tropical flavors'
p3139
S'natural tropical flavor'
p3140
sS'black and green tea leaves and extracts'
p3141
S'black and green tea leaves and extract'
p3142
sS'carrot flakes'
p3143
S'carrot flake'
p3144
sS'spics'
p3145
S'spic'
p3146
sS'beef salivary glands'
p3147
S'beef salivary gland'
p3148
sS'organic dark sweet cherries'
p3149
S'organic dark sweet cherry'
p3150
sS'preserved lemons'
p3151
S'preserved lemon'
p3152
sS'cumins'
p3153
S'cumin'
p3154
sS'goldenseal rhizome & roots'
p3155
S'goldenseal rhizome & root'
p3156
sS'dough conditoners'
p3157
S'dough conditoner'
p3158
sS'dried red chiles'
p3159
S'dried red chile'
p3160
sS'cheddar and blue cheese powders'
p3161
S'cheddar and blue cheese powder'
p3162
sS'natural flavors spices'
p3163
S'natural flavors spice'
p3164
sS'vanilla bean specks'
p3165
S'vanilla bean speck'
p3166
sS'calcium & sodium phosphates'
p3167
S'calcium & sodium phosphate'
p3168
sS'spices & seasonings'
p3169
S'spices & seasoning'
p3170
sS'red chile peppers'
p3171
S'red chile pepper'
p3172
sS'propylene glycon monoesters'
p3173
S'propylene glycon monoester'
p3174
sS'anchovies'
p3175
S'anchovy'
p3176
sS'pasteurized sheeps'
p3177
S'pasteurized sheep'
p3178
sS'ascorbic acid citric acids'
p3179
S'ascorbic acid citric acid'
p3180
sS'cilantro seeds'
p3181
S'cilantro seed'
p3182
sS'dried potatoes'
p3183
S'dried potato'
p3184
sS'whey crisps'
p3185
S'whey crisp'
p3186
sS'mixed acetic and tartaric acid esters of mono- and di-glycerides of fatty acids'
p3187
S'mixed acetic and tartaric acid ester of mono- and di-glycerides of fatty acids'
p3188
sS'filtered water and ground soybeans'
p3189
S'filtered water and ground soybean'
p3190
sS'modified starches'
p3191
S'modified starch'
p3192
sS'rising agents'
p3193
S'rising agent'
p3194
sS'camomile flowers'
p3195
S'camomile flower'
p3196
sS'cooked clams'
p3197
S'cooked clam'
p3198
sS'fresh jalapeno peppers'
p3199
S'fresh jalapeno pepper'
p3200
sS'pork casings'
p3201
S'pork casing'
p3202
sS'fresh diced peaches'
p3203
S'fresh diced peach'
p3204
sS'garlic powder and natural flavors'
p3205
S'garlic powder and natural flavor'
p3206
sS'passion fruit juices'
p3207
S'passion fruit juice'
p3208
sS'malic acid and artificial colors'
p3209
S'malic acid and artificial color'
p3210
sS'citrus juices'
p3211
S'citrus juice'
p3212
sS'white kidney beans'
p3213
S'white kidney bean'
p3214
sS'organic ground flax seeds'
p3215
S'organic ground flax seed'
p3216
sS'black raisins'
p3217
S'black raisin'
p3218
sS'rice crispies'
p3219
S'rice crispy'
p3220
sS'extracts of malted barley and corn grits'
p3221
S'extract of malted barley and corn grits'
p3222
sS'chili seasonings'
p3223
S'chili seasoning'
p3224
sS'non nutritive sweeteners'
p3225
S'non nutritive sweetener'
p3226
sS'partially hydrogenated soybean oils'
p3227
S'partially hydrogenated soybean oil'
p3228
sS'red hot peppers'
p3229
S'red hot pepper'
p3230
sS'endives'
p3231
S'endive'
p3232
sS'concentrated fruit and vegetable juices'
p3233
S'concentrated fruit and vegetable juice'
p3234
sS'anthocyanins'
p3235
S'anthocyanin'
p3236
sS'whole black peppercorns'
p3237
S'whole black peppercorn'
p3238
sS'roasted cashews'
p3239
S'roasted cashew'
p3240
sS'diced tomatoes in tomato juice'
p3241
S'diced tomato in tomato juice'
p3242
sS'organic pumpkins'
p3243
S'organic pumpkin'
p3244
sS'dehydrated potato flakes'
p3245
S'dehydrated potato flake'
p3246
sS'peas'
p3247
S'pea'
p3248
sS'sodium phophates'
p3249
S'sodium phophate'
p3250
sS'alginates'
p3251
S'alginate'
p3252
sS'cracked flax seeds'
p3253
S'cracked flax seed'
p3254
sS'chopped walnuts'
p3255
S'chopped walnut'
p3256
sS'preservatives spices'
p3257
S'preservatives spice'
p3258
sS'watercress juices'
p3259
S'watercress juice'
p3260
sS'dried cheeses'
p3261
S'dried cheese'
p3262
sS'citric acid natural flavors'
p3263
S'citric acid natural flavor'
p3264
sS'extrctives of paprika'
p3265
S'extrctive of paprika'
p3266
sS'diced roma tomatoes'
p3267
S'diced roma tomato'
p3268
sS'firming agents'
p3269
S'firming agent'
p3270
sS'natural falvourings'
p3271
S'natural falvouring'
p3272
sS'marinades'
p3273
S'marinade'
p3274
sS'organic palm fruit oils'
p3275
S'organic palm fruit oil'
p3276
sS'artificial and natural flavorings'
p3277
S'artificial and natural flavoring'
p3278
sS'acids'
p3279
S'acid'
p3280
sS'ground chilis'
p3281
S'ground chili'
p3282
sS'disodium diphosphates'
p3283
S'disodium diphosphate'
p3284
sS'polyglycerol esters of fatty acids'
p3285
S'polyglycerol ester of fatty acids'
p3286
sS'shitake mushrooms'
p3287
S'shitake mushroom'
p3288
sS'dark red kidney beans'
p3289
S'dark red kidney bean'
p3290
sS'water sodium phosphates'
p3291
S'water sodium phosphate'
p3292
sS'chipolte peppers'
p3293
S'chipolte pepper'
p3294
sS'sweet piquante peppers'
p3295
S'sweet piquante pepper'
p3296
sS'mixed nuts'
p3297
S'mixed nut'
p3298
sS'sulfiting agents'
p3299
S'sulfiting agent'
p3300
sS'artificial flavor and artificial colors'
p3301
S'artificial flavor and artificial color'
p3302
sS'natural and artificial flaovrs'
p3303
S'natural and artificial flaovr'
p3304
sS'hydrolyzed corn soy wheat gluten proteins'
p3305
S'hydrolyzed corn soy wheat gluten protein'
p3306
sS'juice concentrates'
p3307
S'juice concentrate'
p3308
sS'natural and artifiicial flavors'
p3309
S'natural and artifiicial flavor'
p3310
sS'caynne peppers'
p3311
S'caynne pepper'
p3312
sS'stevia extracts'
p3313
S'stevia extract'
p3314
sS'black and white peppers'
p3315
S'black and white pepper'
p3316
sS'evaporated apples'
p3317
S'evaporated apple'
p3318
sS'small red beans'
p3319
S'small red bean'
p3320
sS'mils'
p3321
S'mil'
p3322
sS'paprika and annatto colors'
p3323
S'paprika and annatto color'
p3324
sS'preserves'
p3325
S'preserve'
p3326
sS'blueberries'
p3327
S'blueberry'
p3328
sS'bell peppers'
p3329
S'bell pepper'
p3330
sS'peanut oils'
p3331
S'peanut oil'
p3332
sS'green tomatillos'
p3333
S'green tomatillo'
p3334
sS'wheat flours'
p3335
S'wheat flour'
p3336
sS'apricot purees'
p3337
S'apricot puree'
p3338
sS'organic peppers'
p3339
S'organic pepper'
p3340
sS'breaded chicken cutlets'
p3341
S'breaded chicken cutlet'
p3342
sS'dried red chile peppers'
p3343
S'dried red chile pepper'
p3344
sS'flavored coffee contains natural and artificial flavors'
p3345
S'flavored coffee contains natural and artificial flavor'
p3346
sS'sources of calcium'
p3347
S'source of calcium'
p3348
sS'caraway seeds'
p3349
S'caraway seed'
p3350
sS'diced anaheim peppers'
p3351
S'diced anaheim pepper'
p3352
sS'turnips'
p3353
S'turnip'
p3354
sS'split yellow lentils'
p3355
S'split yellow lentil'
p3356
sS'fenugreek leaves'
p3357
S'fenugreek leaf'
p3358
sS'natural pina colada flavors'
p3359
S'natural pina colada flavor'
p3360
sS'vegetable blends'
p3361
S'vegetable blend'
p3362
sS'guar gum. natural flavors'
p3363
S'guar gum. natural flavor'
p3364
sS'vinegars'
p3365
S'vinegar'
p3366
sS'soybean oil egg whites'
p3367
S'soybean oil egg white'
p3368
sS'peach and mango purees'
p3369
S'peach and mango puree'
p3370
sS'poppy flowers'
p3371
S'poppy flower'
p3372
sS'ascorbic acid enzymes'
p3373
S'ascorbic acid enzyme'
p3374
sS'chili extracts'
p3375
S'chili extract'
p3376
sS'partially hydrogenated soybean & cottonseed oils'
p3377
S'partially hydrogenated soybean & cottonseed oil'
p3378
sS'natural stabilizers'
p3379
S'natural stabilizer'
p3380
sS'candy cane flakes'
p3381
S'candy cane flake'
p3382
sS'pimientoes'
p3383
S'pimiento'
p3384
sS'serrano peppers'
p3385
S'serrano pepper'
p3386
sS'diced green bell peppers'
p3387
S'diced green bell pepper'
p3388
sS'mono-diglycerides'
p3389
S'mono-diglyceride'
p3390
sS'extractives of rosemary'
p3391
S'extractive of rosemary'
p3392
sS'dehydrated vegetables: carrots'
p3393
S'dehydrated vegetables: carrot'
p3394
sS'organic expeller pressed oils'
p3395
S'organic expeller pressed oil'
p3396
sS'cheese stabilizers'
p3397
S'cheese stabilizer'
p3398
sS'cookies'
p3399
S'cookie'
p3400
sS'sheep casings'
p3401
S'sheep casing'
p3402
sS'shortening flakes'
p3403
S'shortening flake'
p3404
sS'nat & art. flavors'
p3405
S'nat & art. flavor'
p3406
sS'partially hydrogenated soybeans'
p3407
S'partially hydrogenated soybean'
p3408
sS'guar gum and xanthan gums'
p3409
S'guar gum and xanthan gum'
p3410
sS'fruit and vegetable extracts'
p3411
S'fruit and vegetable extract'
p3412
sS'vegetables fats'
p3413
S'vegetables fat'
p3414
sS'blanched carrots'
p3415
S'blanched carrot'
p3416
sS'vegetable purees'
p3417
S'vegetable puree'
p3418
sS'sodium benzoate and potassium sorbates'
p3419
S'sodium benzoate and potassium sorbate'
p3420
sS'cheeses'
p3421
S'cheese'
p3422
sS'organic seasonings'
p3423
S'organic seasoning'
p3424
sS'artifical colors'
p3425
S'artifical color'
p3426
sS'natural apricot flavors'
p3427
S'natural apricot flavor'
p3428
sS'garlic & onions'
p3429
S'garlic & onion'
p3430
sS'palm kernel and coconut oils'
p3431
S'palm kernel and coconut oil'
p3432
sS'white distilled and white wine vinegars'
p3433
S'white distilled and white wine vinegar'
p3434
sS'scallops'
p3435
S'scallop'
p3436
sS'fresh eggplants'
p3437
S'fresh eggplant'
p3438
sS'rutabagas'
p3439
S'rutabaga'
p3440
sS'dehydrated egg whites'
p3441
S'dehydrated egg white'
p3442
sS'b vitamins'
p3443
S'b vitamin'
p3444
sS'botanical extracts'
p3445
S'botanical extract'
p3446
sS'treenuts'
p3447
S'treenut'
p3448
sS'potassium sorbate 9preservatives'
p3449
S'potassium sorbate 9preservative'
p3450
sS'natural raspberry flavors'
p3451
S'natural raspberry flavor'
p3452
sS'elderberry juice concentrates'
p3453
S'elderberry juice concentrate'
p3454
sS'chicken powder and flavors'
p3455
S'chicken powder and flavor'
p3456
sS'art. flavors'
p3457
S'art. flavor'
p3458
sS'clementines'
p3459
S'clementine'
p3460
sS'garlic spices'
p3461
S'garlic spice'
p3462
sS'sodium posphates'
p3463
S'sodium posphate'
p3464
sS'dry whole eggs'
p3465
S'dry whole egg'
p3466
sS'with preservatives'
p3467
S'with preservative'
p3468
sS'parsley roots'
p3469
S'parsley root'
p3470
sS'apple juices'
p3471
S'apple juice'
p3472
sS'whole egg and egg yolks'
p3473
S'whole egg and egg yolk'
p3474
sS'natural lemon flavor and artificial colors'
p3475
S'natural lemon flavor and artificial color'
p3476
sS'organic diced tomatoes'
p3477
S'organic diced tomato'
p3478
sS'cucumbers'
p3479
S'cucumber'
p3480
sS'cereal grains'
p3481
S'cereal grain'
p3482
sS'chocolate flavored chips'
p3483
S'chocolate flavored chip'
p3484
sS'chicken patties'
p3485
S'chicken patty'
p3486
sS'colores'
p3487
S'colore'
p3488
sS'dietary fibers'
p3489
S'dietary fiber'
p3490
sS'low moisture apples'
p3491
S'low moisture apple'
p3492
sS'chicken breasts with rib meat'
p3493
S'chicken breast with rib meat'
p3494
sS'dried blackberries'
p3495
S'dried blackberry'
p3496
sS'xanthan gums'
p3497
S'xanthan gum'
p3498
sS'non hydrogenated vegetable shortenings'
p3499
S'non hydrogenated vegetable shortening'
p3500
sS'milks'
p3501
S'milk'
p3502
sS'concord grapes'
p3503
S'concord grape'
p3504
sS'high fructose corn syrups'
p3505
S'high fructose corn syrup'
p3506
sS'grapes'
p3507
S'grape'
p3508
sS'binders'
p3509
S'binder'
p3510
sS'blue 1 and other colors'
p3511
S'blue 1 and other color'
p3512
sS'wild strawberry leaves'
p3513
S'wild strawberry leaf'
p3514
sS'mixed berries'
p3515
S'mixed berry'
p3516
sS'sulphites'
p3517
S'sulphite'
p3518
sS'piquillo peppers'
p3519
S'piquillo pepper'
p3520
sS'artificial flavors & colors'
p3521
S'artificial flavors & color'
p3522
sS'caramel color and natural flavors'
p3523
S'caramel color and natural flavor'
p3524
sS'organic whole grains'
p3525
S'organic whole grain'
p3526
sS'dried red peppers'
p3527
S'dried red pepper'
p3528
sS'orange and vanilla flavors'
p3529
S'orange and vanilla flavor'
p3530
sS'concentrated juices'
p3531
S'concentrated juice'
p3532
sS'garlic green bell peppers'
p3533
S'garlic green bell pepper'
p3534
sS'stablizers'
p3535
S'stablizer'
p3536
sS'cake pieces'
p3537
S'cake piece'
p3538
sS'dehydrated jalapenos'
p3539
S'dehydrated jalapeno'
p3540
sS'chocolate flakes'
p3541
S'chocolate flake'
p3542
sS'organic oranges'
p3543
S'organic orange'
p3544
sS'pears'
p3545
S'pear'
p3546
sS'pineapple slices'
p3547
S'pineapple slice'
p3548
sS'soybeans oils'
p3549
S'soybeans oil'
p3550
sS'whole pasteurized eggs'
p3551
S'whole pasteurized egg'
p3552
sS'blood oranges'
p3553
S'blood orange'
p3554
sS'vegetable stabilizers'
p3555
S'vegetable stabilizer'
p3556
sS'organic onion juice concentrates'
p3557
S'organic onion juice concentrate'
p3558
sS'whole organic soybeans'
p3559
S'whole organic soybean'
p3560
sS'glucose polymers'
p3561
S'glucose polymer'
p3562
sS'pork skins'
p3563
S'pork skin'
p3564
sS'natural favors'
p3565
S'natural favor'
p3566
sS'no artificial colors'
p3567
S'no artificial color'
p3568
sS'dehydrate onions'
p3569
S'dehydrate onion'
p3570
sS'white grape and tangerine juice concentrates'
p3571
S'white grape and tangerine juice concentrate'
p3572
sS'gasifiers'
p3573
S'gasifier'
p3574
sS'starter cultures'
p3575
S'starter culture'
p3576
sS'scallions'
p3577
S'scallion'
p3578
sS'lemons'
p3579
S'lemon'
p3580
sS'partially hydrogenated palm kernel and cottonseed oils'
p3581
S'partially hydrogenated palm kernel and cottonseed oil'
p3582
sS'dried sweet potatoes'
p3583
S'dried sweet potato'
p3584
sS'dried tomatos'
p3585
S'dried tomato'
p3586
sS'sugar sodium phosphates'
p3587
S'sugar sodium phosphate'
p3588
sS'riboflavins'
p3589
S'riboflavin'
p3590
sS'extracts of wheat flour and malt barley'
p3591
S'extract of wheat flour and malt barley'
p3592
sS'quinine and natural flavors'
p3593
S'quinine and natural flavor'
p3594
sS'cellulose capsules'
p3595
S'cellulose capsule'
p3596
sS'tamarids'
p3597
S'tamarid'
p3598
sS'fudge pieces'
p3599
S'fudge piece'
p3600
sS'pasteurized milk cheese cultures'
p3601
S'pasteurized milk cheese culture'
p3602
sS'extracts of paprika'
p3603
S'extract of paprika'
p3604
sS'organic sprouted flax seeds'
p3605
S'organic sprouted flax seed'
p3606
sS'natural lemon flavors'
p3607
S'natural lemon flavor'
p3608
sS'cottonseed and soybean oils'
p3609
S'cottonseed and soybean oil'
p3610
sS'peach juice concentrates'
p3611
S'peach juice concentrate'
p3612
sS'fire roasted vegetables'
p3613
S'fire roasted vegetable'
p3614
sS'organic jalapeno peppers'
p3615
S'organic jalapeno pepper'
p3616
sS'palm and canola oils with tbhq and citric acid'
p3617
S'palm and canola oil with tbhq and citric acid'
p3618
sS'natural fruit juices and grain dextrins'
p3619
S'natural fruit juices and grain dextrin'
p3620
sS'enriched eggs'
p3621
S'enriched egg'
p3622
sS'spanish onions'
p3623
S'spanish onion'
p3624
sS'mango purees'
p3625
S'mango puree'
p3626
sS'organic green teas'
p3627
S'organic green tea'
p3628
sS'alfalfa sprouts'
p3629
S'alfalfa sprout'
p3630
sS'salt artificial flavors'
p3631
S'salt artificial flavor'
p3632
sS'cows'
p3633
S'cow'
p3634
sS'processing aids'
p3635
S'processing aid'
p3636
sS'sunflower and canola oils'
p3637
S'sunflower and canola oil'
p3638
sS'salts'
p3639
S'salt'
p3640
sS'lactic starters'
p3641
S'lactic starter'
p3642
sS'lactic acid esters'
p3643
S'lactic acid ester'
p3644
sS'fresh tomatoes'
p3645
S'fresh tomato'
p3646
sS'calms'
p3647
S'calm'
p3648
sS'crisps'
p3649
S'crisp'
p3650
sS'cheese caltures'
p3651
S'cheese calture'
p3652
sS'natural extractives of spice'
p3653
S'natural extractive of spice'
p3654
sS'natural colours'
p3655
S'natural colour'
p3656
sS'dehydrated garlic spices'
p3657
S'dehydrated garlic spice'
p3658
sS'serrano chiles'
p3659
S'serrano chile'
p3660
sS'boneless skinless chicken breasts'
p3661
S'boneless skinless chicken breast'
p3662
sS'organic flaxseeds'
p3663
S'organic flaxseed'
p3664
sS'sugar hydrogenated vegetable oils'
p3665
S'sugar hydrogenated vegetable oil'
p3666
sS'peanut butter cups'
p3667
S'peanut butter cup'
p3668
sS'dried mushrooms'
p3669
S'dried mushroom'
p3670
sS'dried apricots'
p3671
S'dried apricot'
p3672
sS'lemon bioflavonoids'
p3673
S'lemon bioflavonoid'
p3674
sS'tamarinds'
p3675
S'tamarind'
p3676
sS'partially hydrogenated cottonseed and soy oils'
p3677
S'partially hydrogenated cottonseed and soy oil'
p3678
sS'smoke flavourings'
p3679
S'smoke flavouring'
p3680
sS'red 40 lakes'
p3681
S'red 40 lake'
p3682
sS'red peppers'
p3683
S'red pepper'
p3684
sS'soy lecithin and natural flavors'
p3685
S'soy lecithin and natural flavor'
p3686
sS'potato flakes'
p3687
S'potato flake'
p3688
sS'fresh red onions'
p3689
S'fresh red onion'
p3690
sS'cheddar/parmesan/mozzarella cheeses'
p3691
S'cheddar/parmesan/mozzarella cheese'
p3692
sS'fuji apples'
p3693
S'fuji apple'
p3694
sS'red lentils'
p3695
S'red lentil'
p3696
sS'emuslifiers'
p3697
S'emuslifier'
p3698
sS'hydrolyzed soy and wheat gluten proteins'
p3699
S'hydrolyzed soy and wheat gluten protein'
p3700
sS'glycerol esters of wood rosin'
p3701
S'glycerol ester of wood rosin'
p3702
sS'elderberry juices'
p3703
S'elderberry juice'
p3704
sS'raspberry juice concentrates'
p3705
S'raspberry juice concentrate'
p3706
sS'fresh mullets'
p3707
S'fresh mullet'
p3708
sS'candied cherries'
p3709
S'candied cherry'
p3710
sS'dried eggs'
p3711
S'dried egg'
p3712
sS'red oils'
p3713
S'red oil'
p3714
sS'caramel colors'
p3715
S'caramel color'
p3716
sS'breads'
p3717
S'bread'
p3718
sS'red onions'
p3719
S'red onion'
p3720
sS'palm kernel and palm oils'
p3721
S'palm kernel and palm oil'
p3722
sS'cheddar cheese cultures'
p3723
S'cheddar cheese culture'
p3724
sS'ginger extracts'
p3725
S'ginger extract'
p3726
sS'organic extra virgin olive and high oleic sunflower oils'
p3727
S'organic extra virgin olive and high oleic sunflower oil'
p3728
sS'black carrots'
p3729
S'black carrot'
p3730
sS'sausage seasonings'
p3731
S'sausage seasoning'
p3732
sS'artificial butter flavors'
p3733
S'artificial butter flavor'
p3734
sS'flakes'
p3735
S'flake'
p3736
sS'cheddar and parmesan cheeses'
p3737
S'cheddar and parmesan cheese'
p3738
sS'aged habanero peppers'
p3739
S'aged habanero pepper'
p3740
sS'organic ground mustard seeds'
p3741
S'organic ground mustard seed'
p3742
sS'monk fruit extracts'
p3743
S'monk fruit extract'
p3744
sS'enricheds with iron'
p3745
S'enriched with iron'
p3746
sS'calcium salts'
p3747
S'calcium salt'
p3748
sS'nougats'
p3749
S'nougat'
p3750
sS'roots'
p3751
S'root'
p3752
sS'squid tentacles'
p3753
S'squid tentacle'
p3754
sS'whey protein concentrate artificial colors'
p3755
S'whey protein concentrate artificial color'
p3756
sS'sodium sulfites'
p3757
S'sodium sulfite'
p3758
sS'licorice root extracts'
p3759
S'licorice root extract'
p3760
sS'summer truffles'
p3761
S'summer truffle'
p3762
sS'whey spices'
p3763
S'whey spice'
p3764
sS'golden raisins'
p3765
S'golden raisin'
p3766
sS'organic baby carrots'
p3767
S'organic baby carrot'
p3768
sS'natural paprika and annatto extracts'
p3769
S'natural paprika and annatto extract'
p3770
sS'peanuts'
p3771
S'peanut'
p3772
sS'filberts'
p3773
S'filbert'
p3774
sS'white confections'
p3775
S'white confection'
p3776
sS'mango slices'
p3777
S'mango slice'
p3778
sS'organic fennel seeds'
p3779
S'organic fennel seed'
p3780
sS'strawberry purees'
p3781
S'strawberry puree'
p3782
sS'spice extractives of paprika'
p3783
S'spice extractive of paprika'
p3784
sS'food acids'
p3785
S'food acid'
p3786
sS'enzymes and cultures'
p3787
S'enzymes and culture'
p3788
sS'cardamom seeds'
p3789
S'cardamom seed'
p3790
sS'select blended black teas'
p3791
S'select blended black tea'
p3792
sS'grape concentrates'
p3793
S'grape concentrate'
p3794
sS'caramel color flavorings'
p3795
S'caramel color flavoring'
p3796
sS'mandarins'
p3797
S'mandarin'
p3798
sS'artificial flavor and colors'
p3799
S'artificial flavor and color'
p3800
sS'pork tenderloins'
p3801
S'pork tenderloin'
p3802
sS'organic dry roasted pumpkin seeds'
p3803
S'organic dry roasted pumpkin seed'
p3804
sS'bamboo shoots'
p3805
S'bamboo shoot'
p3806
sS'green chili peppers'
p3807
S'green chili pepper'
p3808
sS'xanthan and guar and carob bean gums'
p3809
S'xanthan and guar and carob bean gum'
p3810
sS'nautral and artificial flavors'
p3811
S'nautral and artificial flavor'
p3812
sS'blue berries'
p3813
S'blue berry'
p3814
sS'blueberry juice concentrates'
p3815
S'blueberry juice concentrate'
p3816
sS'partially hydrogenated veg oils'
p3817
S'partially hydrogenated veg oil'
p3818
sS'spice extracts'
p3819
S'spice extract'
p3820
sS'clams'
p3821
S'clam'
p3822
sS'whole rolled oats'
p3823
S'whole rolled oat'
p3824
sS'fruit and vegetable concentrates'
p3825
S'fruit and vegetable concentrate'
p3826
sS'vegetables stocks'
p3827
S'vegetables stock'
p3828
sS'linseeds'
p3829
S'linseed'
p3830
sS'bht preservatives'
p3831
S'bht preservative'
p3832
sS'dehydrated garlic and chili peppers'
p3833
S'dehydrated garlic and chili pepper'
p3834
sS'watermelon and other natural flavors'
p3835
S'watermelon and other natural flavor'
p3836
sS'sauteed onions'
p3837
S'sauteed onion'
p3838
sS'walla walla sweet onions'
p3839
S'walla walla sweet onion'
p3840
sS'low-moisture part-skim mozzarella cheeses'
p3841
S'low-moisture part-skim mozzarella cheese'
p3842
sS'natural oils'
p3843
S'natural oil'
p3844
sS'filtered water and ground organic soybeans'
p3845
S'filtered water and ground organic soybean'
p3846
sS'sundried tomatoes'
p3847
S'sundried tomato'
p3848
sS'fruit & vegetable extracts'
p3849
S'fruit & vegetable extract'
p3850
sS'natural antioxidants'
p3851
S'natural antioxidant'
p3852
sS'salt flavorings'
p3853
S'salt flavoring'
p3854
sS'sweetners'
p3855
S'sweetner'
p3856
sS'ascorbic and citric acids'
p3857
S'ascorbic and citric acid'
p3858
sS'natural thickeners'
p3859
S'natural thickener'
p3860
sS'organic dehydrated onions'
p3861
S'organic dehydrated onion'
p3862
sS'seafood extracts'
p3863
S'seafood extract'
p3864
sS'propylene glycol mono esters'
p3865
S'propylene glycol mono ester'
p3866
sS'natural hickory smoke flavors'
p3867
S'natural hickory smoke flavor'
p3868
sS'strawberry flavors'
p3869
S'strawberry flavor'
p3870
sS'natural & artificial pineapple flavors'
p3871
S'natural & artificial pineapple flavor'
p3872
sS'yellow peas'
p3873
S'yellow pea'
p3874
sS'soybean and olive oils'
p3875
S'soybean and olive oil'
p3876
sS'chipotles in adobo'
p3877
S'chipotle in adobo'
p3878
sS'pine nuts'
p3879
S'pine nut'
p3880
sS'milk,eggs'
p3881
S'milk,egg'
p3882
sS'natural and artifiical flavors'
p3883
S'natural and artifiical flavor'
p3884
sS'natural flavours'
p3885
S'natural flavour'
p3886
sS'dehydrated green and red bell peppers'
p3887
S'dehydrated green and red bell pepper'
p3888
sS'sauteed mushrooms'
p3889
S'sauteed mushroom'
p3890
sS'artificial food flavors'
p3891
S'artificial food flavor'
p3892
sS'folic acis'
p3893
S'folic aci'
p3894
sS'xanthan and locust bean gums'
p3895
S'xanthan and locust bean gum'
p3896
sS'preservative natural and artificial flavors'
p3897
S'preservative natural and artificial flavor'
p3898
sS'natural smoke flavorings'
p3899
S'natural smoke flavoring'
p3900
sS'coconut oils'
p3901
S'coconut oil'
p3902
sS'cheddar and romano cheese powders'
p3903
S'cheddar and romano cheese powder'
p3904
sS'dehydrated onions'
p3905
S'dehydrated onion'
p3906
sS'modified corn and wheat starches'
p3907
S'modified corn and wheat starch'
p3908
sS'artificial flavor & colors'
p3909
S'artificial flavor & color'
p3910
sS'less than 1% of: natural flavors'
p3911
S'less than 1% of: natural flavor'
p3912
sS'dough conditioners'
p3913
S'dough conditioner'
p3914
sS'basils'
p3915
S'basil'
p3916
sS'pretzel sticks'
p3917
S'pretzel stick'
p3918
sS'fractionated palm and palm oils'
p3919
S'fractionated palm and palm oil'
p3920
sS'russet potatoes'
p3921
S'russet potato'
p3922
sS'spice and flavorings'
p3923
S'spice and flavoring'
p3924
sS'sea salt natural flavors'
p3925
S'sea salt natural flavor'
p3926
sS'fava flours'
p3927
S'fava flour'
p3928
sS'extractives of dill'
p3929
S'extractive of dill'
p3930
sS'natural flavor spices'
p3931
S'natural flavor spice'
p3932
sS'tartaric and citric acids'
p3933
S'tartaric and citric acid'
p3934
sS'a b vitamins'
p3935
S'a b vitamin'
p3936
sS'soy and wheat proteins'
p3937
S'soy and wheat protein'
p3938
sS'artificial and natural colors'
p3939
S'artificial and natural color'
p3940
sS'chocolate candies'
p3941
S'chocolate candy'
p3942
sS'dough conditiners'
p3943
S'dough conditiner'
p3944
sS'garlic chives'
p3945
S'garlic chive'
p3946
sS'egg noodles'
p3947
S'egg noodle'
p3948
sS'whey protein isolates'
p3949
S'whey protein isolate'
p3950
sS'organic mangoes'
p3951
S'organic mango'
p3952
sS'sugar partially hydrogenated soybean and cottonseed oils'
p3953
S'sugar partially hydrogenated soybean and cottonseed oil'
p3954
sS'cx-tocopherols'
p3955
S'cx-tocopherol'
p3956
sS'salt dehydrated onions'
p3957
S'salt dehydrated onion'
p3958
sS'dried bell peppers'
p3959
S'dried bell pepper'
p3960
sS'garlic and onion powders'
p3961
S'garlic and onion powder'
p3962
sS'poppy seeds'
p3963
S'poppy seed'
p3964
sS'onion juice concentrates'
p3965
S'onion juice concentrate'
p3966
sS'color and natural flavors'
p3967
S'color and natural flavor'
p3968
sS'an anticaking agents'
p3969
S'an anticaking agent'
p3970
sS'locust bean and guar gums'
p3971
S'locust bean and guar gum'
p3972
sS'pectins'
p3973
S'pectin'
p3974
sS'dried egg whites'
p3975
S'dried egg white'
p3976
sS'dehydrated chipotle peppers'
p3977
S'dehydrated chipotle pepper'
p3978
sS'red and green jalapeno peppers'
p3979
S'red and green jalapeno pepper'
p3980
sS'modified milk ingredients'
p3981
S'modified milk ingredient'
p3982
sS'wheat gluten enzymes'
p3983
S'wheat gluten enzyme'
p3984
sS'ground flax seeds'
p3985
S'ground flax seed'
p3986
sS'natural smoke flavors'
p3987
S'natural smoke flavor'
p3988
sS'partially hydrogenated soybean cottonseed oils'
p3989
S'partially hydrogenated soybean cottonseed oil'
p3990
sS'polysaccharides'
p3991
S'polysaccharide'
p3992
sS'natural plant gums'
p3993
S'natural plant gum'
p3994
sS'l-glycines'
p3995
S'l-glycine'
p3996
sS'enriched unbleached flours'
p3997
S'enriched unbleached flour'
p3998
sS'food gums'
p3999
S'food gum'
p4000
sS'seasoning packet: peanuts'
p4001
S'seasoning packet: peanut'
p4002
sS'bagel conditioners'
p4003
S'bagel conditioner'
p4004
sS'cured cucumbers'
p4005
S'cured cucumber'
p4006
sS'black turtle beans'
p4007
S'black turtle bean'
p4008
sS'vanilla flavorings'
p4009
S'vanilla flavoring'
p4010
sS'refined vegetable fats'
p4011
S'refined vegetable fat'
p4012
sS'organic colors'
p4013
S'organic color'
p4014
sS'diced mangos'
p4015
S'diced mango'
p4016
sS'fruit and vegetable juice concentrates'
p4017
S'fruit and vegetable juice concentrate'
p4018
sS'hydrogenated vegetables oils'
p4019
S'hydrogenated vegetables oil'
p4020
sS'passion flowers'
p4021
S'passion flower'
p4022
sS'natural emulsifiers'
p4023
S'natural emulsifier'
p4024
sS'natural vegetarian flavors'
p4025
S'natural vegetarian flavor'
p4026
sS'garlic. spices'
p4027
S'garlic. spice'
p4028
sS'thickening agents'
p4029
S'thickening agent'
p4030
sS'vanilla and natural flavors'
p4031
S'vanilla and natural flavor'
p4032
sS'swiss and cheddar cheeses'
p4033
S'swiss and cheddar cheese'
p4034
sS'interesterified and hydrogenated soybean oils'
p4035
S'interesterified and hydrogenated soybean oil'
p4036
sS'palm oils'
p4037
S'palm oil'
p4038
sS'garlic natural flavors'
p4039
S'garlic natural flavor'
p4040
sS'grapefruit juices'
p4041
S'grapefruit juice'
p4042
sS'spices extracts'
p4043
S'spices extract'
p4044
sS'cacao nibs'
p4045
S'cacao nib'
p4046
sS'flax seeds'
p4047
S'flax seed'
p4048
sS'portobello mushrooms'
p4049
S'portobello mushroom'
p4050
sS'whole flax seeds'
p4051
S'whole flax seed'
p4052
sS'paprika and paprika extracts'
p4053
S'paprika and paprika extract'
p4054
sS'minced pimentos'
p4055
S'minced pimento'
p4056
sS'cereal flours'
p4057
S'cereal flour'
p4058
sS'shelled hemp seeds'
p4059
S'shelled hemp seed'
p4060
sS'vegetable and fruit juices'
p4061
S'vegetable and fruit juice'
p4062
sS'organic freeze dried pineapples'
p4063
S'organic freeze dried pineapple'
p4064
sS'tomato flakes'
p4065
S'tomato flake'
p4066
sS'tomatoes with tomato juice'
p4067
S'tomato with tomato juice'
p4068
sS'taco shells'
p4069
S'taco shell'
p4070
sS'dairy cultures'
p4071
S'dairy culture'
p4072
sS'spice seasonings'
p4073
S'spice seasoning'
p4074
sS'other natural flavors'
p4075
S'other natural flavor'
p4076
sS'juniper berries'
p4077
S'juniper berry'
p4078
sS'puddings'
p4079
S'pudding'
p4080
sS'hulled pumpkin seeds'
p4081
S'hulled pumpkin seed'
p4082
sS'annatto seeds'
p4083
S'annatto seed'
p4084
sS'dried tomatoes'
p4085
S'dried tomato'
p4086
sS'sodium tripolyphosphates'
p4087
S'sodium tripolyphosphate'
p4088
sS'button mushrooms'
p4089
S'button mushroom'
p4090
sS'palm/soybean/cottonseed oils'
p4091
S'palm/soybean/cottonseed oil'
p4092
sS'corn syrup solids and natural flavors'
p4093
S'corn syrup solids and natural flavor'
p4094
sS'citric acid and spices'
p4095
S'citric acid and spice'
p4096
sS'organic mangos'
p4097
S'organic mango'
p4098
sS'mild red chiles'
p4099
S'mild red chile'
p4100
sS'dried black beans'
p4101
S'dried black bean'
p4102
sS'potassium caseinates'
p4103
S'potassium caseinate'
p4104
sS'pomegranates'
p4105
S'pomegranate'
p4106
sS'green mangos'
p4107
S'green mango'
p4108
sS'cheesse cultures'
p4109
S'cheesse culture'
p4110
sS'spirits'
p4111
S'spirit'
p4112
sS'honeydew melons'
p4113
S'honeydew melon'
p4114
sS'frankfurters'
p4115
S'frankfurter'
p4116
sS'crushed red chile peppers'
p4117
S'crushed red chile pepper'
p4118
sS'pork rinds'
p4119
S'pork rind'
p4120
sS'rice dextrins'
p4121
S'rice dextrin'
p4122
sS'ancho chile peppers'
p4123
S'ancho chile pepper'
p4124
sS'apple and pear juice concentrates'
p4125
S'apple and pear juice concentrate'
p4126
sS'distilled mono glycerides'
p4127
S'distilled mono glyceride'
p4128
sS'chili pepper and other spices'
p4129
S'chili pepper and other spice'
p4130
sS'corn red bell peppers'
p4131
S'corn red bell pepper'
p4132
sS'carrageenan sodium phosphates'
p4133
S'carrageenan sodium phosphate'
p4134
sS'soluble fibers'
p4135
S'soluble fiber'
p4136
sS'natural and artificial flavos'
p4137
S'natural and artificial flavo'
p4138
sS'fractionated palm and palm kernel oils'
p4139
S'fractionated palm and palm kernel oil'
p4140
sS'extractives of tomato'
p4141
S'extractive of tomato'
p4142
sS'natural enzymes'
p4143
S'natural enzyme'
p4144
sS'carotenal colors'
p4145
S'carotenal color'
p4146
sS'emulsifier: soya lecithins'
p4147
S'emulsifier: soya lecithin'
p4148
sS'fruit extracts'
p4149
S'fruit extract'
p4150
sS'salt and flavorings'
p4151
S'salt and flavoring'
p4152
sS'tocopherols'
p4153
S'tocopherol'
p4154
sS'organic peppermint leaves'
p4155
S'organic peppermint leaf'
p4156
sS'organic chamomile flowers'
p4157
S'organic chamomile flower'
p4158
sS'beefsteak leaves'
p4159
S'beefsteak leaf'
p4160
sS'romano and monterey jack cheeses'
p4161
S'romano and monterey jack cheese'
p4162
sS'orange peels'
p4163
S'orange peel'
p4164
sS'cumin seeds'
p4165
S'cumin seed'
p4166
sS'sulfur dioxides'
p4167
S'sulfur dioxide'
p4168
sS'turmeric extractives'
p4169
S'turmeric extractive'
p4170
sS'organic roasted red bell peppers'
p4171
S'organic roasted red bell pepper'
p4172
sS'organic pears'
p4173
S'organic pear'
p4174
sS'oligosaccharides'
p4175
S'oligosaccharide'
p4176
sS'spinach powders'
p4177
S'spinach powder'
p4178
sS'crushed red peppers'
p4179
S'crushed red pepper'
p4180
sS'baked potatoes'
p4181
S'baked potato'
p4182
sS'dehydrated potatoes'
p4183
S'dehydrated potato'
p4184
sS'animal enzymes'
p4185
S'animal enzyme'
p4186
sS'steel cut oats'
p4187
S'steel cut oat'
p4188
sS'enriched egg noodles'
p4189
S'enriched egg noodle'
p4190
sS'dehydrated garlic. dehydrated onions'
p4191
S'dehydrated garlic. dehydrated onion'
p4192
sS'binding agents'
p4193
S'binding agent'
p4194
sS'cottonseeds'
p4195
S'cottonseed'
p4196
sS'orange peel oils'
p4197
S'orange peel oil'
p4198
sS'raspberry flavors'
p4199
S'raspberry flavor'
p4200
sS'preservative natural flavors'
p4201
S'preservative natural flavor'
p4202
sS'red and green peppers'
p4203
S'red and green pepper'
p4204
sS'organic orange peels'
p4205
S'organic orange peel'
p4206
sS'cocoa processes with alkali'
p4207
S'cocoa process with alkali'
p4208
sS'organic goji berries'
p4209
S'organic goji berry'
p4210
sS'dried sweet red peppers'
p4211
S'dried sweet red pepper'
p4212
sS'carob beans'
p4213
S'carob bean'
p4214
sS'citric acid artificial flavors'
p4215
S'citric acid artificial flavor'
p4216
sS'blueberry and carrot concentrates'
p4217
S'blueberry and carrot concentrate'
p4218
sS'poblano chili peppers'
p4219
S'poblano chili pepper'
p4220
sS'organic rose hips'
p4221
S'organic rose hip'
p4222
sS'beef tongue trimmings'
p4223
S'beef tongue trimming'
p4224
sS'natural extracts'
p4225
S'natural extract'
p4226
sS'consists of chocolate'
p4227
S'consist of chocolate'
p4228
sS'flavours'
p4229
S'flavour'
p4230
sS'chocolaty coatings'
p4231
S'chocolaty coating'
p4232
sS'annatto and paprika extracts'
p4233
S'annatto and paprika extract'
p4234
sS'calcium sources'
p4235
S'calcium source'
p4236
sS'caramines'
p4237
S'caramine'
p4238
sS'habanero chili peppers'
p4239
S'habanero chili pepper'
p4240
sS'rhubarbs'
p4241
S'rhubarb'
p4242
sS'fried onions'
p4243
S'fried onion'
p4244
sS'fruit juice concentrates'
p4245
S'fruit juice concentrate'
p4246
sS'organic raspberries'
p4247
S'organic raspberry'
p4248
sS'vitamins'
p4249
S'vitamin'
p4250
sS'red sweet bell peppers'
p4251
S'red sweet bell pepper'
p4252
sS'sun dried tomatos'
p4253
S'sun dried tomato'
p4254
sS'organic yellow mustard seeds'
p4255
S'organic yellow mustard seed'
p4256
sS'mushroom flavors'
p4257
S'mushroom flavor'
p4258
sS'artificial & natural flavors'
p4259
S'artificial & natural flavor'
p4260
sS'sodium benzoates'
p4261
S'sodium benzoate'
p4262
sS'organic juice concentrates'
p4263
S'organic juice concentrate'
p4264
sS'locust bean gums'
p4265
S'locust bean gum'
p4266
sS'spice and herbs'
p4267
S'spice and herb'
p4268
sS'beef tamales'
p4269
S'beef tamale'
p4270
sS'dried figs'
p4271
S'dried fig'
p4272
sS'soybean oil spices'
p4273
S'soybean oil spice'
p4274
sS'modified egg yolks'
p4275
S'modified egg yolk'
p4276
sS'mixed fruits'
p4277
S'mixed fruit'
p4278
sS'yellow 5 & 6 lakes'
p4279
S'yellow 5 & 6 lake'
p4280
sS'collagen casings'
p4281
S'collagen casing'
p4282
sS'carbonates'
p4283
S'carbonate'
p4284
sS'italian black truffles'
p4285
S'italian black truffle'
p4286
sS'horse mackerels'
p4287
S'horse mackerel'
p4288
sS'raisens'
p4289
S'raisen'
p4290
sS'green tomatoes'
p4291
S'green tomato'
p4292
sS'black mustard seeds'
p4293
S'black mustard seed'
p4294
sS'partially hydrogenated and liquid soybean oils'
p4295
S'partially hydrogenated and liquid soybean oil'
p4296
sS'fruit and vegetable juice colors'
p4297
S'fruit and vegetable juice color'
p4298
sS'fennel seeds'
p4299
S'fennel seed'
p4300
sS'paprika and turmeric extract colors'
p4301
S'paprika and turmeric extract color'
p4302
sS'yogurt cultures'
p4303
S'yogurt culture'
p4304
sS'hibiscus flowers'
p4305
S'hibiscus flower'
p4306
sS'salmon fillets'
p4307
S'salmon fillet'
p4308
sS'organic bananas'
p4309
S'organic banana'
p4310
sS'smoke flavors'
p4311
S'smoke flavor'
p4312
sS'cakes'
p4313
S'cake'
p4314
sS'red cherry peppers'
p4315
S'red cherry pepper'
p4316
sS'celery extracts'
p4317
S'celery extract'
p4318
sS'pimentos'
p4319
S'pimento'
p4320
sS'annato extracts'
p4321
S'annato extract'
p4322
sS'organic whole mustard seeds'
p4323
S'organic whole mustard seed'
p4324
sS'agents'
p4325
S'agent'
p4326
sS'red & green bell peppers'
p4327
S'red & green bell pepper'
p4328
sS'organic mushrooms'
p4329
S'organic mushroom'
p4330
sS'dark cherries'
p4331
S'dark cherry'
p4332
sS'cheddar/blue cheeses'
p4333
S'cheddar/blue cheese'
p4334
sS'kernels'
p4335
S'kernel'
p4336
sS'green plantains'
p4337
S'green plantain'
p4338
sS'monoglicerides'
p4339
S'monogliceride'
p4340
sS'maltodextrines'
p4341
S'maltodextrine'
p4342
sS'emulsifiers'
p4343
S'emulsifier'
p4344
sS'bean sprouts'
p4345
S'bean sprout'
p4346
sS'vanilla pods'
p4347
S'vanilla pod'
p4348
sS'dehydrated black beans'
p4349
S'dehydrated black bean'
p4350
sS'peppers'
p4351
S'pepper'
p4352
sS'colorings'
p4353
S'coloring'
p4354
sS'grated horseradish roots'
p4355
S'grated horseradish root'
p4356
sS'dried chipotle chili peppers'
p4357
S'dried chipotle chili pepper'
p4358
sS'vegetable extracts'
p4359
S'vegetable extract'
p4360
sS'butter flavours'
p4361
S'butter flavour'
p4362
sS'sugar vegetable oils'
p4363
S'sugar vegetable oil'
p4364
sS'diced tomatoes in juice'
p4365
S'diced tomato in juice'
p4366
sS'natural citrus extracts'
p4367
S'natural citrus extract'
p4368
sS'natural butter flavors'
p4369
S'natural butter flavor'
p4370
sS'ancho and chipotle chili peppers'
p4371
S'ancho and chipotle chili pepper'
p4372
sS'coffee beans'
p4373
S'coffee bean'
p4374
sS'extractives of turmeric and annatto'
p4375
S'extractive of turmeric and annatto'
p4376
sS'butter pecans'
p4377
S'butter pecan'
p4378
sS'whole blanched almonds'
p4379
S'whole blanched almond'
p4380
sS'organic fruits'
p4381
S'organic fruit'
p4382
sS'vegetarian capsules'
p4383
S'vegetarian capsule'
p4384
sS'ground flaxseeds'
p4385
S'ground flaxseed'
p4386
sS'roasted green chiles'
p4387
S'roasted green chile'
p4388
sS'natural tea flavors'
p4389
S'natural tea flavor'
p4390
sS'grains'
p4391
S'grain'
p4392
sS'calcium lactates'
p4393
S'calcium lactate'
p4394
sS'reconstituted fruit juices'
p4395
S'reconstituted fruit juice'
p4396
sS'organic clovers'
p4397
S'organic clover'
p4398
sS'artificial colors'
p4399
S'artificial color'
p4400
sS'broccoli florets'
p4401
S'broccoli floret'
p4402
sS'hawthorne berries'
p4403
S'hawthorne berry'
p4404
sS'garlic extracts'
p4405
S'garlic extract'
p4406
sS'cajun seasonings'
p4407
S'cajun seasoning'
p4408
sS'dehydrated red and green bell peppers'
p4409
S'dehydrated red and green bell pepper'
p4410
sS'cellulose fibers'
p4411
S'cellulose fiber'
p4412
sS'cage free egg yolks'
p4413
S'cage free egg yolk'
p4414
sS'organic red potatoes'
p4415
S'organic red potato'
p4416
sS'natural tocopherols'
p4417
S'natural tocopherol'
p4418
sS'soybean or canola oils'
p4419
S'soybean or canola oil'
p4420
sS'active cultures'
p4421
S'active culture'
p4422
sS'emulsifier soy lecithins'
p4423
S'emulsifier soy lecithin'
p4424
sS'serranos'
p4425
S'serrano'
p4426
sS'acidifiers'
p4427
S'acidifier'
p4428
sS'chestnuts'
p4429
S'chestnut'
p4430
sS'yeast nutrients'
p4431
S'yeast nutrient'
p4432
sS'organic oils'
p4433
S'organic oil'
p4434
sS'fibers'
p4435
S'fiber'
p4436
sS'natural flavors with other natural flavors'
p4437
S'natural flavor with other natural flavors'
p4438
sS'organic flax seeds'
p4439
S'organic flax seed'
p4440
sS'millets'
p4441
S'millet'
p4442
sS'ground caraway seeds'
p4443
S'ground caraway seed'
p4444
sS'vanilla beans'
p4445
S'vanilla bean'
p4446
sS'tomatoes in tomato juice'
p4447
S'tomato in tomato juice'
p4448
sS'organic chinese green teas'
p4449
S'organic chinese green tea'
p4450
sS'organic green peppercorns'
p4451
S'organic green peppercorn'
p4452
sS'citric acis'
p4453
S'citric aci'
p4454
sS'organic pinto beans'
p4455
S'organic pinto bean'
p4456
sS'citric acid and natural flavorings'
p4457
S'citric acid and natural flavoring'
p4458
sS'vegetable stocks'
p4459
S'vegetable stock'
p4460
sS'uses'
p4461
S'use'
p4462
sS'traces of lime'
p4463
S'trace of lime'
p4464
sS'artificial grape flavors'
p4465
S'artificial grape flavor'
p4466
sS'roasted sweet potatoes'
p4467
S'roasted sweet potato'
p4468
sS'probiotic live active cultures'
p4469
S'probiotic live active culture'
p4470
sS'artichoke leaves'
p4471
S'artichoke leaf'
p4472
sS'natural chocolate flavors'
p4473
S'natural chocolate flavor'
p4474
sS'powdered whole eggs'
p4475
S'powdered whole egg'
p4476
sS'brown rice syrups'
p4477
S'brown rice syrup'
p4478
sS'partially hydrogenated soybean and/ or cottonseed oils'
p4479
S'partially hydrogenated soybean and/ or cottonseed oil'
p4480
sS'chicken enchiladas'
p4481
S'chicken enchilada'
p4482
sS'holy basil leaves'
p4483
S'holy basil leaf'
p4484
sS'sweet potato noodles'
p4485
S'sweet potato noodle'
p4486
sS'straw mushrooms'
p4487
S'straw mushroom'
p4488
sS'caramel color and artificial colors'
p4489
S'caramel color and artificial color'
p4490
sS'tabasco peppers'
p4491
S'tabasco pepper'
p4492
sS'natural food colorings'
p4493
S'natural food coloring'
p4494
sS'romano and cheddar cheeses'
p4495
S'romano and cheddar cheese'
p4496
sS'fractionated palm kernel and palm oils'
p4497
S'fractionated palm kernel and palm oil'
p4498
sS'soy protein nuggets'
p4499
S'soy protein nugget'
p4500
sS'glutamine peptides'
p4501
S'glutamine peptide'
p4502
sS'milk minerals'
p4503
S'milk mineral'
p4504
sS'sweet onions'
p4505
S'sweet onion'
p4506
sS'gelificants'
p4507
S'gelificant'
p4508
sS'dried jalapeno peppers'
p4509
S'dried jalapeno pepper'
p4510
sS'dehydrated garlic dehydrated onions'
p4511
S'dehydrated garlic dehydrated onion'
p4512
sS'natural flavourings'
p4513
S'natural flavouring'
p4514
sS'maltodextrins'
p4515
S'maltodextrin'
p4516
sS'non fat milk solids'
p4517
S'non fat milk solid'
p4518
sS'rice crackers'
p4519
S'rice cracker'
p4520
sS'cookie crumbs'
p4521
S'cookie crumb'
p4522
sS'extractives of turmeric and paprika'
p4523
S'extractive of turmeric and paprika'
p4524
sS'evaporated cane juices'
p4525
S'evaporated cane juice'
p4526
sS'pineapple concentrates'
p4527
S'pineapple concentrate'
p4528
sS'artificial colours'
p4529
S'artificial colour'
p4530
sS'organic raw pumpkin seeds'
p4531
S'organic raw pumpkin seed'
p4532
sS'fire roasted onions'
p4533
S'fire roasted onion'
p4534
sS'mulberries'
p4535
S'mulberry'
p4536
sS'cherries'
p4537
S'cherry'
p4538
sS'vegetable flakes'
p4539
S'vegetable flake'
p4540
sS'dextrose spices'
p4541
S'dextrose spice'
p4542
sS'lactic and citric acids'
p4543
S'lactic and citric acid'
p4544
sS'glycerol esters'
p4545
S'glycerol ester'
p4546
sS'salt and preservatives'
p4547
S'salt and preservative'
p4548
sS'non-hydrogenated vegetable fats and oils'
p4549
S'non-hydrogenated vegetable fats and oil'
p4550
sS'dried onions'
p4551
S'dried onion'
p4552
sS'cooked beef pattie crumbles'
p4553
S'cooked beef pattie crumble'
p4554
sS'buttermilk solids'
p4555
S'buttermilk solid'
p4556
sS'whey isolates'
p4557
S'whey isolate'
p4558
sS'plum tomatoes'
p4559
S'plum tomato'
p4560
sS'extractives of spices'
p4561
S'extractive of spices'
p4562
sS'coriander seeds'
p4563
S'coriander seed'
p4564
sS'natural. flavors'
p4565
S'natural. flavor'
p4566
sS'acidity regulator: sodium citrates'
p4567
S'acidity regulator: sodium citrate'
p4568
sS'dl-alpha tocopherols'
p4569
S'dl-alpha tocopherol'
p4570
sS'salt and spices'
p4571
S'salt and spice'
p4572
sS'naural and artificial flavors'
p4573
S'naural and artificial flavor'
p4574
sS'modified corn and potato starches'
p4575
S'modified corn and potato starch'
p4576
sS'mcts'
p4577
S'mct'
p4578
sS'chipotle flakes'
p4579
S'chipotle flake'
p4580
sS'fresh yellow onions'
p4581
S'fresh yellow onion'
p4582
sS'acidifying agents'
p4583
S'acidifying agent'
p4584
sS'sodium diacetate spices'
p4585
S'sodium diacetate spice'
p4586
sS'nacho taco seasonings'
p4587
S'nacho taco seasoning'
p4588
sS'water soybeans'
p4589
S'water soybean'
p4590
sS'milk cultures'
p4591
S'milk culture'
p4592
sS'organic green onions'
p4593
S'organic green onion'
p4594
sS'partially soybean oils'
p4595
S'partially soybean oil'
p4596
sS'black chokeberries'
p4597
S'black chokeberry'
p4598
sS'lavender flowers'
p4599
S'lavender flower'
p4600
sS'sauces'
p4601
S'sauce'
p4602
sS'zucchinis'
p4603
S'zucchini'
p4604
sS'organic walnuts'
p4605
S'organic walnut'
p4606
sS'spice and spice extracts'
p4607
S'spice and spice extract'
p4608
sS'rapeseed oils'
p4609
S'rapeseed oil'
p4610
sS'yellow 5 and 6 lakes'
p4611
S'yellow 5 and 6 lake'
p4612
sS"disodium 5'-inosinate and disodium 5'-guanylates"
p4613
S"disodium 5'-inosinate and disodium 5'-guanylate"
p4614
sS'cinnamon cloves'
p4615
S'cinnamon clove'
p4616
sS'aged cayenne red peppers'
p4617
S'aged cayenne red pepper'
p4618
sS'erythritol natural flavors'
p4619
S'erythritol natural flavor'
p4620
sS'nat. & art. flavors'
p4621
S'nat. & art. flavor'
p4622
sS'capsule consists of gelatin'
p4623
S'capsule consist of gelatin'
p4624
sS'baking sods'
p4625
S'baking sod'
p4626
sS'cream cheese cultures'
p4627
S'cream cheese culture'
p4628
sS'eggs'
p4629
S'egg'
p4630
sS'spices including chili peppers'
p4631
S'spices including chili pepper'
p4632
sS'organic oregano leaves'
p4633
S'organic oregano leaf'
p4634
sS'guajillo chili peppers'
p4635
S'guajillo chili pepper'
p4636
sS'natural and artificial vanilla flavors'
p4637
S'natural and artificial vanilla flavor'
p4638
sS'organic peanuts'
p4639
S'organic peanut'
p4640
sS'lactic acid starter cultures'
p4641
S'lactic acid starter culture'
p4642
sS'dried blueberries'
p4643
S'dried blueberry'
p4644
sS'provolone cheeses'
p4645
S'provolone cheese'
p4646
sS'organic potatoes'
p4647
S'organic potato'
p4648
sS'lakes'
p4649
S'lake'
p4650
sS'parmesan and cheddar cheeses'
p4651
S'parmesan and cheddar cheese'
p4652
sS'garlic & onion powders'
p4653
S'garlic & onion powder'
p4654
sS'chili peppers and other spices'
p4655
S'chili peppers and other spice'
p4656
sS'as preservatives'
p4657
S'as preservative'
p4658
sS'corn sweeteners'
p4659
S'corn sweetener'
p4660
sS'pyridoxine hydrochlorides'
p4661
S'pyridoxine hydrochloride'
p4662
sS'organic grapes'
p4663
S'organic grape'
p4664
sS'cereal crisps'
p4665
S'cereal crisp'
p4666
sS'mono and digycerides'
p4667
S'mono and digyceride'
p4668
sS'gherkins'
p4669
S'gherkin'
p4670
sS'dried chili peppers'
p4671
S'dried chili pepper'
p4672
sS'ume plums'
p4673
S'ume plum'
p4674
sS'vegetable and fruit juice colors'
p4675
S'vegetable and fruit juice color'
p4676
sS'ethoxylated monoglycerides'
p4677
S'ethoxylated monoglyceride'
p4678
sS'organic vanilla flavors'
p4679
S'organic vanilla flavor'
p4680
sS'orange and pineapple juice concentrates'
p4681
S'orange and pineapple juice concentrate'
p4682
sS'may contain tree nuts'
p4683
S'may contain tree nut'
p4684
sS'eggs whites'
p4685
S'eggs white'
p4686
sS'veggie chips'
p4687
S'veggie chip'
p4688
sS'surface finishing agents'
p4689
S'surface finishing agent'
p4690
sS'red potatoes'
p4691
S'red potato'
p4692
sS'soybean oil sesame seeds'
p4693
S'soybean oil sesame seed'
p4694
sS'partially cooked spaetzle dumplings'
p4695
S'partially cooked spaetzle dumpling'
p4696
sS'fruit & vegetable juices'
p4697
S'fruit & vegetable juice'
p4698
sS'atural flavors'
p4699
S'atural flavor'
p4700
sS'natural spices and flavorings'
p4701
S'natural spices and flavoring'
p4702
sS'natural flavor and extractives of paprika'
p4703
S'natural flavor and extractive of paprika'
p4704
sS'leeks'
p4705
S'leek'
p4706
sS'cottonseed oils'
p4707
S'cottonseed oil'
p4708
sS'mixed tocopherols'
p4709
S'mixed tocopherol'
p4710
sS'psyllium seed husks'
p4711
S'psyllium seed husk'
p4712
sS'of natural flavors'
p4713
S'of natural flavor'
p4714
sS'soy mono- and diglycerides'
p4715
S'soy mono- and diglyceride'
p4716
sS'santaka chiles'
p4717
S'santaka chile'
p4718
sS'organic milk powders'
p4719
S'organic milk powder'
p4720
sS'cassavas'
p4721
S'cassava'
p4722
sS'canola and modified palm oils'
p4723
S'canola and modified palm oil'
p4724
sS'liquid and partially hydrogenated soybean oils'
p4725
S'liquid and partially hydrogenated soybean oil'
p4726
sS'vanilla extracts'
p4727
S'vanilla extract'
p4728
sS'organic cardamom pods'
p4729
S'organic cardamom pod'
p4730
sS'cherry peppers'
p4731
S'cherry pepper'
p4732
sS'calcium and sodium caseinates'
p4733
S'calcium and sodium caseinate'
p4734
sS'unbleached enriched fours'
p4735
S'unbleached enriched four'
p4736
sS'corn oils'
p4737
S'corn oil'
p4738
sS'corn and soy and wheat proteins'
p4739
S'corn and soy and wheat protein'
p4740
sS'sprouted pumpkin seeds'
p4741
S'sprouted pumpkin seed'
p4742
sS'cinnamon flakes'
p4743
S'cinnamon flake'
p4744
sS'flour tortillas'
p4745
S'flour tortilla'
p4746
sS'wheat sprouts'
p4747
S'wheat sprout'
p4748
sS'gold raisins'
p4749
S'gold raisin'
p4750
sS'tomato onions'
p4751
S'tomato onion'
p4752
sS'panca peppers'
p4753
S'panca pepper'
p4754
sS'mango juices'
p4755
S'mango juice'
p4756
sS'granulated sugars'
p4757
S'granulated sugar'
p4758
sS'started cultures'
p4759
S'started culture'
p4760
sS'falvors'
p4761
S'falvor'
p4762
sS'carob bean and guar gums'
p4763
S'carob bean and guar gum'
p4764
sS'fresh red bell peppers'
p4765
S'fresh red bell pepper'
p4766
sS"disodium 5'-ribonucleotides"
p4767
S"disodium 5'-ribonucleotide"
p4768
sS'roasted pumpkin seeds in shell and salt'
p4769
S'roasted pumpkin seed in shell and salt'
p4770
sS'marigold flowers'
p4771
S'marigold flower'
p4772
sS'as anti-caking agents'
p4773
S'as anti-caking agent'
p4774
sS'natural falvors'
p4775
S'natural falvor'
p4776
sS'organic dried apples'
p4777
S'organic dried apple'
p4778
sS'nautral flavors'
p4779
S'nautral flavor'
p4780
sS'chopped tomatoes'
p4781
S'chopped tomato'
p4782
sS'organic cashews'
p4783
S'organic cashew'
p4784
sS'orange apples'
p4785
S'orange apple'
p4786
sS'certified colors'
p4787
S'certified color'
p4788
sS'pacayas'
p4789
S'pacaya'
p4790
sS'tomato flavors'
p4791
S'tomato flavor'
p4792
sS'flaxseeds'
p4793
S'flaxseed'
p4794
sS'roasted jalapeno peppers'
p4795
S'roasted jalapeno pepper'
p4796
sS'cream spices'
p4797
S'cream spice'
p4798
sS'titanium dioxides'
p4799
S'titanium dioxide'
p4800
sS'enyzmes'
p4801
S'enyzme'
p4802
sS'wheat. soybeans'
p4803
S'wheat. soybean'
p4804
sS'xanthan and guar gums'
p4805
S'xanthan and guar gum'
p4806
sS'natural honey flavors with other natural flavors'
p4807
S'natural honey flavor with other natural flavors'
p4808
sS'di alpha tocopherols'
p4809
S'di alpha tocopherol'
p4810
sS'organic egg whites'
p4811
S'organic egg white'
p4812
sS'monoesters'
p4813
S'monoester'
p4814
sS'gluten-free natural flavors'
p4815
S'gluten-free natural flavor'
p4816
sS'chicken stocks'
p4817
S'chicken stock'
p4818
sS'organic strawberries'
p4819
S'organic strawberry'
p4820
sS'sesame oil. vegetable packet: carrots'
p4821
S'sesame oil. vegetable packet: carrot'
p4822
sS'whey minerals'
p4823
S'whey mineral'
p4824
sS'lactic acis'
p4825
S'lactic aci'
p4826
sS'turkey livers'
p4827
S'turkey liver'
p4828
sS'soy lecithin and artificial flavors'
p4829
S'soy lecithin and artificial flavor'
p4830
sS'purple carrots'
p4831
S'purple carrot'
p4832
sS'expeller pressed oils'
p4833
S'expeller pressed oil'
p4834
sS'naturally fermented wheat and soybeans'
p4835
S'naturally fermented wheat and soybean'
p4836
sS'extractives of black pepper'
p4837
S'extractive of black pepper'
p4838
sS'sesame seeds'
p4839
S'sesame seed'
p4840
sS'tart cherries'
p4841
S'tart cherry'
p4842
sS'organic beets'
p4843
S'organic beet'
p4844
sS'organic minced onions'
p4845
S'organic minced onion'
p4846
sS'peppadew peppers'
p4847
S'peppadew pepper'
p4848
sS'organic chia seeds'
p4849
S'organic chia seed'
p4850
sS'berries'
p4851
S'berry'
p4852
sS'less than 1% natural flavors'
p4853
S'less than 1% natural flavor'
p4854
sS'cardamom. cloves'
p4855
S'cardamom. clove'
p4856
sS'green chilis'
p4857
S'green chili'
p4858
sS'brown flax seeds'
p4859
S'brown flax seed'
p4860
sS'potassium metabisulfites'
p4861
S'potassium metabisulfite'
p4862
sS'chicken including chicken juices'
p4863
S'chicken including chicken juice'
p4864
sS'natural fibers'
p4865
S'natural fiber'
p4866
sS'spice flavors'
p4867
S'spice flavor'
p4868
sS'sweet potatoes'
p4869
S'sweet potato'
p4870
sS'wild berries'
p4871
S'wild berry'
p4872
sS'organic sunflower seeds'
p4873
S'organic sunflower seed'
p4874
sS'natural spice extractives'
p4875
S'natural spice extractive'
p4876
sS'hydrogenated coconut and soybean oils'
p4877
S'hydrogenated coconut and soybean oil'
p4878
sS'vitamin a palmitate and enzymes'
p4879
S'vitamin a palmitate and enzyme'
p4880
sS'decaffeinated black teas'
p4881
S'decaffeinated black tea'
p4882
sS'sodium metabisulfites'
p4883
S'sodium metabisulfite'
p4884
sS'passionfruit juice concentrates'
p4885
S'passionfruit juice concentrate'
p4886
sS'ground peppercorns'
p4887
S'ground peppercorn'
p4888
sS'diced red bell peppers'
p4889
S'diced red bell pepper'
p4890
sS'anenzymes'
p4891
S'anenzyme'
p4892
sS'chokeberries'
p4893
S'chokeberry'
p4894
sS'nisin preparation and spices'
p4895
S'nisin preparation and spice'
p4896
sS'beef seasonings'
p4897
S'beef seasoning'
p4898
sS'peanus'
p4899
S'peanu'
p4900
sS'natural minerals'
p4901
S'natural mineral'
p4902
sS'hot chili peppers'
p4903
S'hot chili pepper'
p4904
sS'natural pomegranate flavors with other natural flavors'
p4905
S'natural pomegranate flavor with other natural flavors'
p4906
sS'ground peppers'
p4907
S'ground pepper'
p4908
sS'fresh jalapenos'
p4909
S'fresh jalapeno'
p4910
sS'lecithin artificial flavors'
p4911
S'lecithin artificial flavor'
p4912
sS'dried cranberries'
p4913
S'dried cranberry'
p4914
sS'products of turkey'
p4915
S'product of turkey'
p4916
sS'an emulsifier leavenings'
p4917
S'an emulsifier leavening'
p4918
sS'celery onions'
p4919
S'celery onion'
p4920
sS'polyglycerol polyricinoleates'
p4921
S'polyglycerol polyricinoleate'
p4922
sS'cocoa beans'
p4923
S'cocoa bean'
p4924
sS'alpha tocopherols'
p4925
S'alpha tocopherol'
p4926
sS'preservative. may contain sesame seeds'
p4927
S'preservative. may contain sesame seed'
p4928
sS'organic shiitake mushrooms'
p4929
S'organic shiitake mushroom'
p4930
sS'natural vegetable stabilizers'
p4931
S'natural vegetable stabilizer'
p4932
sS'partially hydrogenated oils'
p4933
S'partially hydrogenated oil'
p4934
sS'candelilla was'
p4935
S'candelilla wa'
p4936
sS'lactic acid starter culture spices'
p4937
S'lactic acid starter culture spice'
p4938
sS'fire roasted green bell peppers'
p4939
S'fire roasted green bell pepper'
p4940
sS'guar gums'
p4941
S'guar gum'
p4942
sS'minerals'
p4943
S'mineral'
p4944
sS'squids'
p4945
S'squid'
p4946
sS'organic brown flax seeds'
p4947
S'organic brown flax seed'
p4948
sS'canola and sunflower oils'
p4949
S'canola and sunflower oil'
p4950
sS'salt cheese cultures'
p4951
S'salt cheese culture'
p4952
sS'cage free egg whites'
p4953
S'cage free egg white'
p4954
sS'nacho flavors'
p4955
S'nacho flavor'
p4956
sS'pepperoncinis'
p4957
S'pepperoncini'
p4958
sS'garlic and spices'
p4959
S'garlic and spice'
p4960
sS'ascorbic enzymes'
p4961
S'ascorbic enzyme'
p4962
sS'lemon peel and whole dried lemons'
p4963
S'lemon peel and whole dried lemon'
p4964
sS'natural and artificial favors'
p4965
S'natural and artificial favor'
p4966
sS'peanut and or cottonseed oils'
p4967
S'peanut and or cottonseed oil'
p4968
sS'enzyme modified egg yolks'
p4969
S'enzyme modified egg yolk'
p4970
sS'oregano leaves'
p4971
S'oregano leaf'
p4972
sS'brown sugar flavors'
p4973
S'brown sugar flavor'
p4974
sS'organic lentils'
p4975
S'organic lentil'
p4976
sS'natural colors'
p4977
S'natural color'
p4978
sS'garlic powder natural flavors'
p4979
S'garlic powder natural flavor'
p4980
sS'canola/soybean oils'
p4981
S'canola/soybean oil'
p4982
sS'soy lecithin natural flavors'
p4983
S'soy lecithin natural flavor'
p4984
sS'celery stocks'
p4985
S'celery stock'
p4986
sS'shrimps'
p4987
S'shrimp'
p4988
sS'spices and natural flavors'
p4989
S'spices and natural flavor'
p4990
sS'bilberries'
p4991
S'bilberry'
p4992
sS'egg ingredients'
p4993
S'egg ingredient'
p4994
sS'partially hydrogenated palm kernel oils'
p4995
S'partially hydrogenated palm kernel oil'
p4996
sS'brussels sprouts'
p4997
S'brussels sprout'
p4998
sS'gura gums'
p4999
S'gura gum'
p5000
sS'brown sugars'
p5001
S'brown sugar'
p5002
sS'natural and artificail flavors'
p5003
S'natural and artificail flavor'
p5004
sS'organic apple flakes'
p5005
S'organic apple flake'
p5006
sS'diced tomatoes in puree'
p5007
S'diced tomato in puree'
p5008
sS'naturally decaffeinated black teas'
p5009
S'naturally decaffeinated black tea'
p5010
sS'sodium and potassium phosphates'
p5011
S'sodium and potassium phosphate'
p5012
sS'organic roasted pumpkin seeds'
p5013
S'organic roasted pumpkin seed'
p5014
sS'chickpeas'
p5015
S'chickpea'
p5016
sS'potatoes vegetable oils'
p5017
S'potatoes vegetable oil'
p5018
sS'milk proteins'
p5019
S'milk protein'
p5020
sS'seasonnings'
p5021
S'seasonning'
p5022
sS'flavourings'
p5023
S'flavouring'
p5024
sS'garlic and onions'
p5025
S'garlic and onion'
p5026
sS"sheep's milk cheese cultures"
p5027
S"sheep's milk cheese culture"
p5028
sS'raw almonds'
p5029
S'raw almond'
p5030
sS'prickly pears'
p5031
S'prickly pear'
p5032
sS'hawthorn berries'
p5033
S'hawthorn berry'
p5034
sS'asiago cheeses'
p5035
S'asiago cheese'
p5036
sS'raspberries'
p5037
S'raspberry'
p5038
sS'monoglycerides'
p5039
S'monoglyceride'
p5040
sS'cheese enchiladas'
p5041
S'cheese enchilada'
p5042
sS'palm oil and palm kernel oils'
p5043
S'palm oil and palm kernel oil'
p5044
sS'coatings'
p5045
S'coating'
p5046
sS'ground chiles'
p5047
S'ground chile'
p5048
sS'organic almonds'
p5049
S'organic almond'
p5050
sS'extractives of annatto and turmeric'
p5051
S'extractive of annatto and turmeric'
p5052
sS'stabalizers'
p5053
S'stabalizer'
p5054
sS'aromas'
p5055
S'aroma'
p5056
sS'wheat gluten proteins'
p5057
S'wheat gluten protein'
p5058
sS'new mexico chile peppers'
p5059
S'new mexico chile pepper'
p5060
sS'riboflavin enzymes'
p5061
S'riboflavin enzyme'
p5062
sS'hydrolyzed corns'
p5063
S'hydrolyzed corn'
p5064
sS'part-skim mozzarella and parmesan cheeses'
p5065
S'part-skim mozzarella and parmesan cheese'
p5066
sS'natural hazelnut flavors'
p5067
S'natural hazelnut flavor'
p5068
sS'citric acid. natural and artificial flavors'
p5069
S'citric acid. natural and artificial flavor'
p5070
sS'natural and artificial butter flavors'
p5071
S'natural and artificial butter flavor'
p5072
sS'extractives'
p5073
S'extractive'
p5074
sS'young soybeans'
p5075
S'young soybean'
p5076
sS'green mung beans'
p5077
S'green mung bean'
p5078
sS'rehydrated potatoes'
p5079
S'rehydrated potato'
p5080
sS'vegetable enzymes'
p5081
S'vegetable enzyme'
p5082
sS'cottenseed oils'
p5083
S'cottenseed oil'
p5084
sS'natural powders'
p5085
S'natural powder'
p5086
sS'citrus extracts'
p5087
S'citrus extract'
p5088
sS'turmeric and paprika oleoresins'
p5089
S'turmeric and paprika oleoresin'
p5090
sS'oven roasted tomatoes'
p5091
S'oven roasted tomato'
p5092
sS'organic spinach leaves'
p5093
S'organic spinach leaf'
p5094
sS'korean red peppers'
p5095
S'korean red pepper'
p5096
sS'dehydrated eggs'
p5097
S'dehydrated egg'
p5098
sS'partially hydrogenated soybean/cottonseed oils'
p5099
S'partially hydrogenated soybean/cottonseed oil'
p5100
sS'organic vegetable juices'
p5101
S'organic vegetable juice'
p5102
sS'perservatives'
p5103
S'perservative'
p5104
sS'dried green and red bell peppers'
p5105
S'dried green and red bell pepper'
p5106
sS'natrual and artificial flavors'
p5107
S'natrual and artificial flavor'
p5108
sS'68%: carrots'
p5109
S'68%: carrot'
p5110
sS'organic buckwheat sprouts'
p5111
S'organic buckwheat sprout'
p5112
sS'citrus bioflavonoids'
p5113
S'citrus bioflavonoid'
p5114
sS'baking soda. natural flavors'
p5115
S'baking soda. natural flavor'
p5116
sS'antural flavors'
p5117
S'antural flavor'
p5118
sS'maqui berries'
p5119
S'maqui berry'
p5120
sS'wheat proteins'
p5121
S'wheat protein'
p5122
sS'chicken thighs'
p5123
S'chicken thigh'
p5124
sS'oils'
p5125
S'oil'
p5126
sS'sucrose esters'
p5127
S'sucrose ester'
p5128
sS'sodium polyphosphates'
p5129
S'sodium polyphosphate'
p5130
sS'paprika and paprika extractives'
p5131
S'paprika and paprika extractive'
p5132
sS'thickeners'
p5133
S'thickener'
p5134
sS'fire roasted tomatoes'
p5135
S'fire roasted tomato'
p5136
sS'orange and lemon peels'
p5137
S'orange and lemon peel'
p5138
sS'organic rolled oats'
p5139
S'organic rolled oat'
p5140
sS'green peas'
p5141
S'green pea'
p5142
sS'conditioners'
p5143
S'conditioner'
p5144
sS'green habanero peppers'
p5145
S'green habanero pepper'
p5146
sS'less than 0.5% of: mono and diglycerides'
p5147
S'less than 0.5% of: mono and diglyceride'
p5148
sS'pasteurized milk and cream cheese cultures'
p5149
S'pasteurized milk and cream cheese culture'
p5150
sS'sherry wines'
p5151
S'sherry wine'
p5152
sS'no concentrates'
p5153
S'no concentrate'
p5154
sS'natural caramel flavors'
p5155
S'natural caramel flavor'
p5156
sS'salt onions'
p5157
S'salt onion'
p5158
sS'xanthan gum and spices'
p5159
S'xanthan gum and spice'
p5160
sS'tomatoes in juice'
p5161
S'tomato in juice'
p5162
sS'wild lingonberries'
p5163
S'wild lingonberry'
p5164
sS'mono and diglycerides of fatty acids'
p5165
S'mono and diglyceride of fatty acids'
p5166
sS'may contain peanuts'
p5167
S'may contain peanut'
p5168
sS'organic jasmine flowers'
p5169
S'organic jasmine flower'
p5170
sS'nonfat milk and enzymes'
p5171
S'nonfat milk and enzyme'
p5172
sS'citric acid preservatives'
p5173
S'citric acid preservative'
p5174
sS'cranberry seeds'
p5175
S'cranberry seed'
p5176
sS'broccoli stems'
p5177
S'broccoli stem'
p5178
sS'crickets'
p5179
S'cricket'
p5180
sS'organic muenster and organic provolone cheeses'
p5181
S'organic muenster and organic provolone cheese'
p5182
sS'mango flavored pineapple coins'
p5183
S'mango flavored pineapple coin'
p5184
sS'chocolate chips'
p5185
S'chocolate chip'
p5186
sS'naturally fermented wheat & soybeans'
p5187
S'naturally fermented wheat & soybean'
p5188
sS'morro seeds'
p5189
S'morro seed'
p5190
sS'west indian red peppers'
p5191
S'west indian red pepper'
p5192
sS'onion and garlic powders'
p5193
S'onion and garlic powder'
p5194
sS'organic schizandra berries'
p5195
S'organic schizandra berry'
p5196
sS'red hot chili peppers'
p5197
S'red hot chili pepper'
p5198
sS'flours'
p5199
S'flour'
p5200
sS'chocolate wafers'
p5201
S'chocolate wafer'
p5202
sS'naturaland artificial flavorings'
p5203
S'naturaland artificial flavoring'
p5204
sS'citric acid and natural flavors'
p5205
S'citric acid and natural flavor'
p5206
sS'rye sourdough cultures'
p5207
S'rye sourdough culture'
p5208
sS'onions'
p5209
S'onion'
p5210
sS'food colors'
p5211
S'food color'
p5212
sS'diacetyl tartaric acid esters of mono- and diglycerides'
p5213
S'diacetyl tartaric acid ester of mono- and diglycerides'
p5214
sS'presrvatives'
p5215
S'presrvative'
p5216
sS'organic black teas'
p5217
S'organic black tea'
p5218
sS'dried ancho peppers'
p5219
S'dried ancho pepper'
p5220
sS'parsley leaves'
p5221
S'parsley leaf'
p5222
sS'dried carrots'
p5223
S'dried carrot'
p5224
sS'organic leeks'
p5225
S'organic leek'
p5226
sS'wheat eggs'
p5227
S'wheat egg'
p5228
sS'organic cayenne peppers'
p5229
S'organic cayenne pepper'
p5230
sS'salt and artificial flavors'
p5231
S'salt and artificial flavor'
p5232
sS'organic vegetables'
p5233
S'organic vegetable'
p5234
sS'polysorbate 60 natural and artificial flavors'
p5235
S'polysorbate 60 natural and artificial flavor'
p5236
sS'natural grapefruit flavors'
p5237
S'natural grapefruit flavor'
p5238
sS'seville oranges'
p5239
S'seville orange'
p5240
sS'partially hydrogenated soybean and cotton seed oils'
p5241
S'partially hydrogenated soybean and cotton seed oil'
p5242
sS'vegetables: onions'
p5243
S'vegetables: onion'
p5244
sS'propionates'
p5245
S'propionate'
p5246
sS'milk solids'
p5247
S'milk solid'
p5248
sS'rice flours'
p5249
S'rice flour'
p5250
sS'waters'
p5251
S'water'
p5252
sS'extractives of paprika'
p5253
S'extractive of paprika'
p5254
sS'dried potatos'
p5255
S'dried potato'
p5256
sS'rye oats'
p5257
S'rye oat'
p5258
sS'sodium acid pyro phosphates'
p5259
S'sodium acid pyro phosphate'
p5260
sS'organic flavorings'
p5261
S'organic flavoring'
p5262
sS'collards'
p5263
S'collard'
p5264
sS'natural colorings'
p5265
S'natural coloring'
p5266
sS'organic chicken flavors'
p5267
S'organic chicken flavor'
p5268
sS'starters'
p5269
S'starter'
p5270
sS'blueberry & carrot extracts'
p5271
S'blueberry & carrot extract'
p5272
sS'tartaric acids'
p5273
S'tartaric acid'
p5274
sS'organic raw sunflower seeds'
p5275
S'organic raw sunflower seed'
p5276
sS'squid rings'
p5277
S'squid ring'
p5278
sS'gluten proteins'
p5279
S'gluten protein'
p5280
sS'semi-sweet chocolate chips'
p5281
S'semi-sweet chocolate chip'
p5282
sS'chesse cultures'
p5283
S'chesse culture'
p5284
sS'organic blackcurrants'
p5285
S'organic blackcurrant'
p5286
sS'monterey jack and cheddar cheeses'
p5287
S'monterey jack and cheddar cheese'
p5288
sS'organic crimini mushrooms'
p5289
S'organic crimini mushroom'
p5290
sS'diced tomatoes'
p5291
S'diced tomato'
p5292
sS'paprika oleoresins'
p5293
S'paprika oleoresin'
p5294
sS'eggplants'
p5295
S'eggplant'
p5296
sS'modified potato and corn starches'
p5297
S'modified potato and corn starch'
p5298
sS'cheddar and asiago cheeses'
p5299
S'cheddar and asiago cheese'
p5300
sS'potassium phosphates'
p5301
S'potassium phosphate'
p5302
sS'baking powders'
p5303
S'baking powder'
p5304
sS'jalape\xc3\x91os'
p5305
S'jalape\xc3\x91o'
p5306
sS'ens'
p5307
S'en'
p5308
sS'blue cheeses'
p5309
S'blue cheese'
p5310
sS'churros'
p5311
S'churro'
p5312
sS'organic currants'
p5313
S'organic currant'
p5314
sS'freeze dried strawberries'
p5315
S'freeze dried strawberry'
p5316
sS'organic chocolate chips'
p5317
S'organic chocolate chip'
p5318
sS'dill pickles'
p5319
S'dill pickle'
p5320
sS'organic dried tomatoes'
p5321
S'organic dried tomato'
p5322
sS'california tomatoes'
p5323
S'california tomato'
p5324
sS'sunflower oils'
p5325
S'sunflower oil'
p5326
sS'fish proteins'
p5327
S'fish protein'
p5328
sS'green & pink peppercorns'
p5329
S'green & pink peppercorn'
p5330
sS'tomato powders'
p5331
S'tomato powder'
p5332
sS'turkey skins'
p5333
S'turkey skin'
p5334
sS'garbanzos'
p5335
S'garbanzo'
p5336
sS'extratives of paprika'
p5337
S'extrative of paprika'
p5338
sS'romano cheese cultures'
p5339
S'romano cheese culture'
p5340
sS'ascorbic acid and tocopherols'
p5341
S'ascorbic acid and tocopherol'
p5342
sS'organic tomatillos'
p5343
S'organic tomatillo'
p5344
sS'black raspberries'
p5345
S'black raspberry'
p5346
sS'minced onions'
p5347
S'minced onion'
p5348
sS'dehydrated sweet potatoes'
p5349
S'dehydrated sweet potato'
p5350
sS'clifcrunchs'
p5351
S'clifcrunch'
p5352
sS'sugar onions'
p5353
S'sugar onion'
p5354
sS'clusters'
p5355
S'cluster'
p5356
sS'lychees'
p5357
S'lychee'
p5358
sS'pecans'
p5359
S'pecan'
p5360
sS'blackberries'
p5361
S'blackberry'
p5362
sS'reconstituted vegetables'
p5363
S'reconstituted vegetable'
p5364
sS'sodium bisulfites'
p5365
S'sodium bisulfite'
p5366
sS'oranges'
p5367
S'orange'
p5368
sS'natural black cherry flavors'
p5369
S'natural black cherry flavor'
p5370
sS'mung beans'
p5371
S'mung bean'
p5372
sS'garlic extractives'
p5373
S'garlic extractive'
p5374
sS'chamomile leaves'
p5375
S'chamomile leaf'
p5376
sS'spice and natural flavors'
p5377
S'spice and natural flavor'
p5378
sS'fully hydrogenated vegetable oils'
p5379
S'fully hydrogenated vegetable oil'
p5380
sS'flaorings'
p5381
S'flaoring'
p5382
sS'50 grains'
p5383
S'50 grain'
p5384
sS'presevatives'
p5385
S'presevative'
p5386
sS'natural grain dextrins'
p5387
S'natural grain dextrin'
p5388
sS'consists of dark chocolate'
p5389
S'consist of dark chocolate'
p5390
sS'haas avocados'
p5391
S'haas avocado'
p5392
sS'carbohydrate gums'
p5393
S'carbohydrate gum'
p5394
sS'fresh peppers'
p5395
S'fresh pepper'
p5396
sS'mono & diglycers'
p5397
S'mono & diglycer'
p5398
sS'pistachios'
p5399
S'pistachio'
p5400
sS'liquid egg whites'
p5401
S'liquid egg white'
p5402
sS'rehydrated onions'
p5403
S'rehydrated onion'
p5404
sS'palm and sunflower oils'
p5405
S'palm and sunflower oil'
p5406
sS'yellow hot peppers'
p5407
S'yellow hot pepper'
p5408
sS'leavenngs'
p5409
S'leavenng'
p5410
sS'snap peas'
p5411
S'snap pea'
p5412
sS'red and green bell peppers'
p5413
S'red and green bell pepper'
p5414
sS'anti-oxidants'
p5415
S'anti-oxidant'
p5416
sS'no additives'
p5417
S'no additive'
p5418
sS'vanilla flavors'
p5419
S'vanilla flavor'
p5420
sS'soy and eggs'
p5421
S'soy and egg'
p5422
sS'corn solids'
p5423
S'corn solid'
p5424
sS'natural lemon-lime flavors'
p5425
S'natural lemon-lime flavor'
p5426
sS'black sesame seeds'
p5427
S'black sesame seed'
p5428
sS'u.s. certified colors'
p5429
S'u.s. certified color'
p5430
sS'organic tart cherries'
p5431
S'organic tart cherry'
p5432
sS'pasteurized cows milk cultures'
p5433
S'pasteurized cows milk culture'
p5434
sS'annato and onions'
p5435
S'annato and onion'
p5436
sS'lactose and milk proteins'
p5437
S'lactose and milk protein'
p5438
sS'flavor bases'
p5439
S'flavor base'
p5440
sS'preservative spices'
p5441
S'preservative spice'
p5442
sS'turmeric spices'
p5443
S'turmeric spice'
p5444
sS'cottonseeds oils'
p5445
S'cottonseeds oil'
p5446
sS'organic poblano peppers'
p5447
S'organic poblano pepper'
p5448
sS'alpha-tocopherols'
p5449
S'alpha-tocopherol'
p5450
sS'poppyseeds'
p5451
S'poppyseed'
p5452
sS'salted egg yolks'
p5453
S'salted egg yolk'
p5454
sS'palm or cottonseed oils'
p5455
S'palm or cottonseed oil'
p5456
sS'golden flax seeds'
p5457
S'golden flax seed'
p5458
sS'fruit and vegetable colors'
p5459
S'fruit and vegetable color'
p5460
sS'cayenne peppers'
p5461
S'cayenne pepper'
p5462
sS'tamarind natural flavors'
p5463
S'tamarind natural flavor'
p5464
sS'dehydrated mushrooms'
p5465
S'dehydrated mushroom'
p5466
sS'adds a dietarily insignificant amounts of trans fat per serving'
p5467
S'adds a dietarily insignificant amount of trans fat per serving'
p5468
sS'fresh pasteurized eggs'
p5469
S'fresh pasteurized egg'
p5470
sS'milk and tree nuts'
p5471
S'milk and tree nut'
p5472
sS'soy polysaccharides'
p5473
S'soy polysaccharide'
p5474
sS'propylene glycol monoesters of fats and fatty acids'
p5475
S'propylene glycol monoester of fats and fatty acids'
p5476
sS'organic dried whole eggs'
p5477
S'organic dried whole egg'
p5478
sS'gum arabic and natural flavors'
p5479
S'gum arabic and natural flavor'
p5480
sS'/or cottonseed oils'
p5481
S'/or cottonseed oil'
p5482
sS'sprouted garbanzo beans'
p5483
S'sprouted garbanzo bean'
p5484
sS'artifical flavors and colors'
p5485
S'artifical flavors and color'
p5486
sS'small white beans'
p5487
S'small white bean'
p5488
sS'aniseeds'
p5489
S'aniseed'
p5490
sS'slivered almonds'
p5491
S'slivered almond'
p5492
sS'organic green beans'
p5493
S'organic green bean'
p5494
sS'cured anchovies'
p5495
S'cured anchovy'
p5496
sS'soy isoflavones'
p5497
S'soy isoflavone'
p5498
sS'organic soy beans'
p5499
S'organic soy bean'
p5500
sS'milk,cheese cultures'
p5501
S'milk,cheese culture'
p5502
sS'ammonium phosphatides'
p5503
S'ammonium phosphatide'
p5504
sS'with smoke and grill flavors'
p5505
S'with smoke and grill flavor'
p5506
sS'cherry tomatoes'
p5507
S'cherry tomato'
p5508
sS'dairy products solids'
p5509
S'dairy products solid'
p5510
sS'chili bits'
p5511
S'chili bit'
p5512
sS'sodium and calcium caseinates'
p5513
S'sodium and calcium caseinate'
p5514
sS'rolls'
p5515
S'roll'
p5516
sS'no nitrates'
p5517
S'no nitrate'
p5518
sS'sour cherries'
p5519
S'sour cherry'
p5520
sS'guajillo chiles'
p5521
S'guajillo chile'
p5522
sS'artificial vanilla flavors'
p5523
S'artificial vanilla flavor'
p5524
sS'natural mixed tocopherols'
p5525
S'natural mixed tocopherol'
p5526
sS'dehydrates onions'
p5527
S'dehydrates onion'
p5528
sS'pork livers'
p5529
S'pork liver'
p5530
sS'valerian extracts'
p5531
S'valerian extract'
p5532
sS'organic oats'
p5533
S'organic oat'
p5534
sS'curry spices'
p5535
S'curry spice'
p5536
sS'u. s. certified colors'
p5537
S'u. s. certified color'
p5538
sS'vitamin a palmitates'
p5539
S'vitamin a palmitate'
p5540
sS'brown mustard seeds'
p5541
S'brown mustard seed'
p5542
sS'chicken fat flavors'
p5543
S'chicken fat flavor'
p5544
sS'boysenberries'
p5545
S'boysenberry'
p5546
sS'roasted mushrooms'
p5547
S'roasted mushroom'
p5548
sS'soy proteins'
p5549
S'soy protein'
p5550
sS'diced green chiles'
p5551
S'diced green chile'
p5552
sS'malt centers'
p5553
S'malt center'
p5554
sS'vegetable fats'
p5555
S'vegetable fat'
p5556
sS'100% natural ingredients: soybeans'
p5557
S'100% natural ingredients: soybean'
p5558
sS'hot green peppers'
p5559
S'hot green pepper'
p5560
sS'partially hydrogenated vegetable oils'
p5561
S'partially hydrogenated vegetable oil'
p5562
sS'chinese green tea leaves'
p5563
S'chinese green tea leaf'
p5564
sS'probiotics'
p5565
S'probiotic'
p5566
sS'vegetable cellulose capsules'
p5567
S'vegetable cellulose capsule'
p5568
sS'all spices'
p5569
S'all spice'
p5570
sS'natural & artificial flavours'
p5571
S'natural & artificial flavour'
p5572
sS'n & a flavors'
p5573
S'n & a flavor'
p5574
sS'kaffir lime leaves'
p5575
S'kaffir lime leaf'
p5576
sS'assorted seasonings'
p5577
S'assorted seasoning'
p5578
sS'artificially flavors'
p5579
S'artificially flavor'
p5580
sS'onion flakes'
p5581
S'onion flake'
p5582
sS'chopped onions'
p5583
S'chopped onion'
p5584
sS'carrots'
p5585
S'carrot'
p5586
sS'kimchi flakes'
p5587
S'kimchi flake'
p5588
sS'sorbic acid preservatives'
p5589
S'sorbic acid preservative'
p5590
sS'cashews vegetable oils'
p5591
S'cashews vegetable oil'
p5592
sS'sesame sticks'
p5593
S'sesame stick'
p5594
sS'natural flayors'
p5595
S'natural flayor'
p5596
sS'natural spice oleoresins'
p5597
S'natural spice oleoresin'
p5598
sS'thbq and citric acids'
p5599
S'thbq and citric acid'
p5600
sS'cheese curds'
p5601
S'cheese curd'
p5602
sS'beet fibers'
p5603
S'beet fiber'
p5604
sS'whole eggs and eggs yolks'
p5605
S'whole eggs and eggs yolk'
p5606
sS'romano cheeses'
p5607
S'romano cheese'
p5608
sS'plant-derived capsules'
p5609
S'plant-derived capsule'
p5610
sS'yeast extract spices'
p5611
S'yeast extract spice'
p5612
sS'antioxydants'
p5613
S'antioxydant'
p5614
sS'organic herbs'
p5615
S'organic herb'
p5616
sS'guavas'
p5617
S'guava'
p5618
sS'natural cultures'
p5619
S'natural culture'
p5620
sS'mono- & diglycerides'
p5621
S'mono- & diglyceride'
p5622
sS'chopped roasted hazelnuts'
p5623
S'chopped roasted hazelnut'
p5624
sS'powdered egg yolks'
p5625
S'powdered egg yolk'
p5626
sS'leaving agents'
p5627
S'leaving agent'
p5628
sS'seasonings'
p5629
S'seasoning'
p5630
sS'enriched bleached flours'
p5631
S'enriched bleached flour'
p5632
sS'water and concentrated juices of sweet potatoes'
p5633
S'water and concentrated juice of sweet potatoes'
p5634
sS'caramelized onions'
p5635
S'caramelized onion'
p5636
sS'pretzels'
p5637
S'pretzel'
p5638
sS'aritificial colors'
p5639
S'aritificial color'
p5640
sS'starches'
p5641
S'starch'
p5642
sS'yellow carrots'
p5643
S'yellow carrot'
p5644
sS'soy isolates'
p5645
S'soy isolate'
p5646
sS'arabica coffees'
p5647
S'arabica coffee'
p5648
sS'whole wheat sprouts'
p5649
S'whole wheat sprout'
p5650
sS'cane refinery syrups'
p5651
S'cane refinery syrup'
p5652
sS'pasteurized milk and cream. cheese cultures'
p5653
S'pasteurized milk and cream. cheese culture'
p5654
sS'organic fuji apples'
p5655
S'organic fuji apple'
p5656
sS'organic bilberries'
p5657
S'organic bilberry'
p5658
sS'poblano chiles'
p5659
S'poblano chile'
p5660
sS'corn and wheat gluten proteins'
p5661
S'corn and wheat gluten protein'
p5662
sS'beets'
p5663
S'beet'
p5664
sS'kiwis'
p5665
S'kiwi'
p5666
sS'onions jalapeno peppers'
p5667
S'onions jalapeno pepper'
p5668
sS'strawberry juice concentrates'
p5669
S'strawberry juice concentrate'
p5670
sS'red beans'
p5671
S'red bean'
p5672
sS'vegetarian enzymes'
p5673
S'vegetarian enzyme'
p5674
sS'cashew nuts'
p5675
S'cashew nut'
p5676
sS'corn and wheat proteins'
p5677
S'corn and wheat protein'
p5678
sS'graham cookie pieces'
p5679
S'graham cookie piece'
p5680
sS'natural cinnamon flavors'
p5681
S'natural cinnamon flavor'
p5682
sS'safflower or sunflower oils'
p5683
S'safflower or sunflower oil'
p5684
sS'dehydrated figs'
p5685
S'dehydrated fig'
p5686
sS'potassium & sodium phosphates'
p5687
S'potassium & sodium phosphate'
p5688
sS'hydrolyzed soy proteins'
p5689
S'hydrolyzed soy protein'
p5690
sS'herb extracts'
p5691
S'herb extract'
p5692
sS'organic rooibos leaves'
p5693
S'organic rooibos leaf'
p5694
sS"disodium uridine-5'-monophosphates"
p5695
S"disodium uridine-5'-monophosphate"
p5696
sS'garlic flakes'
p5697
S'garlic flake'
p5698
sS'vegetable capsules'
p5699
S'vegetable capsule'
p5700
sS'kidney beans'
p5701
S'kidney bean'
p5702
sS'pomegranate juice concentrates'
p5703
S'pomegranate juice concentrate'
p5704
sS'yolks'
p5705
S'yolk'
p5706
sS'di-sodium phosphates'
p5707
S'di-sodium phosphate'
p5708
sS'dried minced onions'
p5709
S'dried minced onion'
p5710
sS'whey protein hydrolysates'
p5711
S'whey protein hydrolysate'
p5712
sS'organic egg noodles'
p5713
S'organic egg noodle'
p5714
sS'natural orange flavors with other natural flavors'
p5715
S'natural orange flavor with other natural flavors'
p5716
sS'whey protiens'
p5717
S'whey protien'
p5718
sS'dried anchovies'
p5719
S'dried anchovy'
p5720
sS'granulated onions'
p5721
S'granulated onion'
p5722
sS'roasted poblano chiles'
p5723
S'roasted poblano chile'
p5724
sS'natural flavor protectors'
p5725
S'natural flavor protector'
p5726
sS'sunflowers'
p5727
S'sunflower'
p5728
sS'chicken flavors'
p5729
S'chicken flavor'
p5730
sS'green bell peppers'
p5731
S'green bell pepper'
p5732
sS'natural and artificial orange flavors'
p5733
S'natural and artificial orange flavor'
p5734
sS'frozen egg yolks'
p5735
S'frozen egg yolk'
p5736
sS'graham cracker crumbs'
p5737
S'graham cracker crumb'
p5738
sS'skinless chicken breasts with rib meat'
p5739
S'skinless chicken breast with rib meat'
p5740
sS'nettles'
p5741
S'nettle'
p5742
sS'capsules'
p5743
S'capsule'
p5744
sS'fatty acids'
p5745
S'fatty acid'
p5746
sS'palm kernel oils'
p5747
S'palm kernel oil'
p5748
sS'presercatives'
p5749
S'presercative'
p5750
sS'baked potato shells'
p5751
S'baked potato shell'
p5752
sS'chicken livers'
p5753
S'chicken liver'
p5754
sS'raw walnuts'
p5755
S'raw walnut'
p5756
sS'dried onion spices'
p5757
S'dried onion spice'
p5758
sS'dried chipotle peppers'
p5759
S'dried chipotle pepper'
p5760
sS'milk and eggs'
p5761
S'milk and egg'
p5762
sS'cheddar and romano cheeses'
p5763
S'cheddar and romano cheese'
p5764
sS'flavor enchancers'
p5765
S'flavor enchancer'
p5766
sS'blackcurrants'
p5767
S'blackcurrant'
p5768
sS'propyl parabens'
p5769
S'propyl paraben'
p5770
sS'organic peas'
p5771
S'organic pea'
p5772
sS'art colors'
p5773
S'art color'
p5774
sS'crushed tomatoes'
p5775
S'crushed tomato'
p5776
sS'guar and carob bean and xanthan gums'
p5777
S'guar and carob bean and xanthan gum'
p5778
sS'spices & herbs'
p5779
S'spices & herb'
p5780
sS'graham crackers'
p5781
S'graham cracker'
p5782
sS'fire roasted green chiles'
p5783
S'fire roasted green chile'
p5784
sS'natural flavors and spices'
p5785
S'natural flavors and spice'
p5786
sS'sweet potato juice concentrates'
p5787
S'sweet potato juice concentrate'
p5788
sS'preservative. colors'
p5789
S'preservative. color'
p5790
sS'wheat gluten and soy proteins'
p5791
S'wheat gluten and soy protein'
p5792
sS'bread crumbs'
p5793
S'bread crumb'
p5794
sS'seasoned tomatoes'
p5795
S'seasoned tomato'
p5796
sS'celery roots'
p5797
S'celery root'
p5798
sS'pasilla peppers'
p5799
S'pasilla pepper'
p5800
sS'organic whole flax seeds'
p5801
S'organic whole flax seed'
p5802
sS'vanilla natural flavors'
p5803
S'vanilla natural flavor'
p5804
sS'pink peppercorns'
p5805
S'pink peppercorn'
p5806
sS'rosemary extracts'
p5807
S'rosemary extract'
p5808
sS'organic cranberries'
p5809
S'organic cranberry'
p5810
sS'strawberries and clarified bananas'
p5811
S'strawberries and clarified banana'
p5812
sS'black currants'
p5813
S'black currant'
p5814
sS'corn syrup solids'
p5815
S'corn syrup solid'
p5816
sS'monosodium glutamates'
p5817
S'monosodium glutamate'
p5818
sS'chicken breasts'
p5819
S'chicken breast'
p5820
sS'dried lemon peels'
p5821
S'dried lemon peel'
p5822
sS'meatballs'
p5823
S'meatball'
p5824
sS'cilantro leaves'
p5825
S'cilantro leaf'
p5826
sS'basil leaves'
p5827
S'basil leaf'
p5828
sS'artifical & natural flavors'
p5829
S'artifical & natural flavor'
p5830
sS'diced jalapenos'
p5831
S'diced jalapeno'
p5832
sS'carrageenan gums'
p5833
S'carrageenan gum'
p5834
sS'white peppers'
p5835
S'white pepper'
p5836
sS'coconut and palm oils'
p5837
S'coconut and palm oil'
p5838
sS'd-alpha-tocopherols'
p5839
S'd-alpha-tocopherol'
p5840
sS'apple and pineapple juice concentrates'
p5841
S'apple and pineapple juice concentrate'
p5842
sS'green and red bell peppers'
p5843
S'green and red bell pepper'
p5844
sS'seaweeds'
p5845
S'seaweed'
p5846
sS'tapioca & grain syrups'
p5847
S'tapioca & grain syrup'
p5848
sS'purple sweet potatos'
p5849
S'purple sweet potato'
p5850
sS'organic mate leaves'
p5851
S'organic mate leaf'
p5852
sS'purified fish oils'
p5853
S'purified fish oil'
p5854
sS'may contain pineapples'
p5855
S'may contain pineapple'
p5856
sS'wheat berries'
p5857
S'wheat berry'
p5858
sS'mustard seeds'
p5859
S'mustard seed'
p5860
sS'natural flavor and sulfiting agents'
p5861
S'natural flavor and sulfiting agent'
p5862
sS'organic wheat and organic whole wheat flours'
p5863
S'organic wheat and organic whole wheat flour'
p5864
sS'tomato paste onions'
p5865
S'tomato paste onion'
p5866
sS'cream natural flavors'
p5867
S'cream natural flavor'
p5868
sS'organic habanero peppers'
p5869
S'organic habanero pepper'
p5870
sS'barbecue seasonings'
p5871
S'barbecue seasoning'
p5872
sS'pineapple cherries'
p5873
S'pineapple cherry'
p5874
sS'roasted yellow onions'
p5875
S'roasted yellow onion'
p5876
sS'diacetyl tartaric acid esters of mono-diglycerides'
p5877
S'diacetyl tartaric acid ester of mono-diglycerides'
p5878
sS'sodium and pyrophosphates'
p5879
S'sodium and pyrophosphate'
p5880
sS'hydrogenated coconut and palm kernel oils'
p5881
S'hydrogenated coconut and palm kernel oil'
p5882
sS'habaneros'
p5883
S'habanero'
p5884
sS'rice noodles'
p5885
S'rice noodle'
p5886
sS'serrano chili peppers'
p5887
S'serrano chili pepper'
p5888
sS'natural colorants'
p5889
S'natural colorant'
p5890
sS'white peppercorns'
p5891
S'white peppercorn'
p5892
sS'palm and palm kernel oils'
p5893
S'palm and palm kernel oil'
p5894
sS'yellow 6 lakes'
p5895
S'yellow 6 lake'
p5896
sS'rooibos leaves'
p5897
S'rooibos leaf'
p5898
sS'large eggs'
p5899
S'large egg'
p5900
sS'certified organic fruit juices'
p5901
S'certified organic fruit juice'
p5902
sS'vanilla bean seeds'
p5903
S'vanilla bean seed'
p5904
sS'yeast flavors'
p5905
S'yeast flavor'
p5906
sS'disodium phosphates'
p5907
S'disodium phosphate'
p5908
sS'dehydrated onoins'
p5909
S'dehydrated onoin'
p5910
sS'corn kernels'
p5911
S'corn kernel'
p5912
sS'drum dried raspberries'
p5913
S'drum dried raspberry'
p5914
sS'organic and natural flavors'
p5915
S'organic and natural flavor'
p5916
sS'toasted sesame seeds'
p5917
S'toasted sesame seed'
p5918
sS'& art. flavors'
p5919
S'& art. flavor'
p5920
sS'ascorbic acid and citric acids'
p5921
S'ascorbic acid and citric acid'
p5922
sS'green chiles'
p5923
S'green chile'
p5924
sS'white lima beans'
p5925
S'white lima bean'
p5926
sS'turmeric and paprika extracts'
p5927
S'turmeric and paprika extract'
p5928
sS'dried red bell peppers'
p5929
S'dried red bell pepper'
p5930
sS'polyglycerol esters'
p5931
S'polyglycerol ester'
p5932
sS'cotton seed oils'
p5933
S'cotton seed oil'
p5934
sS'crushed pineapples'
p5935
S'crushed pineapple'
p5936
sS'sodium bicarbonates'
p5937
S'sodium bicarbonate'
p5938
sS'cardamoms'
p5939
S'cardamom'
p5940
sS'salt and spice extractives'
p5941
S'salt and spice extractive'
p5942
sS'milk derivatives'
p5943
S'milk derivative'
p5944
sS'sodium nitrite and flavorings'
p5945
S'sodium nitrite and flavoring'
p5946
sS'folic acid enzymes'
p5947
S'folic acid enzyme'
p5948
sS'natural mixed berry flavors'
p5949
S'natural mixed berry flavor'
p5950
sS'flavoring agents'
p5951
S'flavoring agent'
p5952
sS'with natural & artificial flavors'
p5953
S'with natural & artificial flavor'
p5954
sS'stearates'
p5955
S'stearate'
p5956
sS'chili flakes'
p5957
S'chili flake'
p5958
sS'blueberry leaves'
p5959
S'blueberry leaf'
p5960
sS'natural vegan flavors'
p5961
S'natural vegan flavor'
p5962
sS'pasteurized eggs'
p5963
S'pasteurized egg'
p5964
sS'acacia & xanthan gums'
p5965
S'acacia & xanthan gum'
p5966
sS'carrot shoe strings'
p5967
S'carrot shoe string'
p5968
sS'natural and artificial peach flavors'
p5969
S'natural and artificial peach flavor'
p5970
sS'green split peas'
p5971
S'green split pea'
p5972
sS'salt and enzymes'
p5973
S'salt and enzyme'
p5974
sS'dried green chiles'
p5975
S'dried green chile'
p5976
sS'chipotles'
p5977
S'chipotle'
p5978
sS'preseratives'
p5979
S'preserative'
p5980
sS'fried pork skins'
p5981
S'fried pork skin'
p5982
sS'organic great northern beans'
p5983
S'organic great northern bean'
p5984
sS'splenda brand and artificial colors'
p5985
S'splenda brand and artificial color'
p5986
sS'salt dough conditioners'
p5987
S'salt dough conditioner'
p5988
sS'dried cabbage flakes'
p5989
S'dried cabbage flake'
p5990
sS'reishi mushrooms'
p5991
S'reishi mushroom'
p5992
sS'partially hydrogenated soybean oil and cottonseed oils'
p5993
S'partially hydrogenated soybean oil and cottonseed oil'
p5994
sS'organic rice crisps'
p5995
S'organic rice crisp'
p5996
sS'black cherries'
p5997
S'black cherry'
p5998
sS'cereals'
p5999
S'cereal'
p6000
sS'natural flovors'
p6001
S'natural flovor'
p6002
sS'anti caking agents'
p6003
S'anti caking agent'
p6004
sS'yellow peppers'
p6005
S'yellow pepper'
p6006
sS'onion powders'
p6007
S'onion powder'
p6008
sS'extra virgin olive oils'
p6009
S'extra virgin olive oil'
p6010
sS'natural & artificial flavors'
p6011
S'natural & artificial flavor'
p6012
sS'ackees'
p6013
S'ackee'
p6014
sS'pyrophosphates'
p6015
S'pyrophosphate'
p6016
sS'enriched vermicellis'
p6017
S'enriched vermicelli'
p6018
sS'flex seeds'
p6019
S'flex seed'
p6020
sS'dandelion leaves'
p6021
S'dandelion leaf'
p6022
sS'annatto and turmeric colors'
p6023
S'annatto and turmeric color'
p6024
sS'yeast and natural flavors'
p6025
S'yeast and natural flavor'
p6026
sS'soy lecithin and natural and artificial flavors'
p6027
S'soy lecithin and natural and artificial flavor'
p6028
sS'blended oils'
p6029
S'blended oil'
p6030
sS'soy and wheat gluten proteins'
p6031
S'soy and wheat gluten protein'
p6032
sS'brown sugar seasonings'
p6033
S'brown sugar seasoning'
p6034
sS'partially hydrogenated soybean & cotton seed oils'
p6035
S'partially hydrogenated soybean & cotton seed oil'
p6036
sS'carbohydrates'
p6037
S'carbohydrate'
p6038
sS'sprouted lentils'
p6039
S'sprouted lentil'
p6040
sS'apricots'
p6041
S'apricot'
p6042
sS'hydrolized whey protein isolates'
p6043
S'hydrolized whey protein isolate'
p6044
sS'black teas with oil of bergamot'
p6045
S'black tea with oil of bergamot'
p6046
sS'tomatoes'
p6047
S'tomato'
p6048
sS'semisoft and cheddar cheeses'
p6049
S'semisoft and cheddar cheese'
p6050
sS'green & red bell peppers'
p6051
S'green & red bell pepper'
p6052
sS'pepperoncini peppers'
p6053
S'pepperoncini pepper'
p6054
sS'vanilla bean extractives in water'
p6055
S'vanilla bean extractive in water'
p6056
sS'roasted pumpkin seeds'
p6057
S'roasted pumpkin seed'
p6058
sS'apricot juice concentrates'
p6059
S'apricot juice concentrate'
p6060
sS'passion fruit juice concentrates'
p6061
S'passion fruit juice concentrate'
p6062
sS'artificial lemon flavors'
p6063
S'artificial lemon flavor'
p6064
sS'carob bean gums'
p6065
S'carob bean gum'
p6066
sS'extractives of paprika and annatto'
p6067
S'extractive of paprika and annatto'
p6068
sS'favourings'
p6069
S'favouring'
p6070
sS'roasted sesame seeds'
p6071
S'roasted sesame seed'
p6072
sS'aerial parts'
p6073
S'aerial part'
p6074
sS'baby greens'
p6075
S'baby green'
p6076
sS'chicken breast fritters'
p6077
S'chicken breast fritter'
p6078
sS'organic pecans'
p6079
S'organic pecan'
p6080
sS'idaho potatoes'
p6081
S'idaho potato'
p6082
sS'organic corn tortillas'
p6083
S'organic corn tortilla'
p6084
sS'mono and glycerides'
p6085
S'mono and glyceride'
p6086
sS'sprouted adzuki beans'
p6087
S'sprouted adzuki bean'
p6088
sS'lactic acid and flavors'
p6089
S'lactic acid and flavor'
p6090
sS'citric and lactic acids'
p6091
S'citric and lactic acid'
p6092
sS'annotto extracts'
p6093
S'annotto extract'
p6094
sS'dehydrated red bell peppers'
p6095
S'dehydrated red bell pepper'
p6096
sS'pasteurized whole eggs'
p6097
S'pasteurized whole egg'
p6098
sS'organic ground red peppers'
p6099
S'organic ground red pepper'
p6100
sS'dehydrated leeks'
p6101
S'dehydrated leek'
p6102
sS'quartered artichoke hearts'
p6103
S'quartered artichoke heart'
p6104
sS'parsley flakes'
p6105
S'parsley flake'
p6106
sS'spanish green tomatoes'
p6107
S'spanish green tomato'
p6108
sS'organic ingredients'
p6109
S'organic ingredient'
p6110
sS'bananas'
p6111
S'banana'
p6112
sS'sucrose fatty acid esters'
p6113
S'sucrose fatty acid ester'
p6114
sS'sugar dehydrated onions'
p6115
S'sugar dehydrated onion'
p6116
sS'organic golden flax seeds'
p6117
S'organic golden flax seed'
p6118
sS'spaetzle dumplings'
p6119
S'spaetzle dumpling'
p6120
sS'annatto and turmeric extracts'
p6121
S'annatto and turmeric extract'
p6122
sS'organic green bell peppers'
p6123
S'organic green bell pepper'
p6124
sS'chili pepper extracts'
p6125
S'chili pepper extract'
p6126
sS'extractives of pepper and spices'
p6127
S'extractive of pepper and spices'
p6128
sS'cashes'
p6129
S'cash'
p6130
sS'salt natural flavors'
p6131
S'salt natural flavor'
p6132
sS'oregano extracts'
p6133
S'oregano extract'
p6134
sS'red jalapeno peppers'
p6135
S'red jalapeno pepper'
p6136
sS'natural and artificial strawberry flavors'
p6137
S'natural and artificial strawberry flavor'
p6138
sS'red and green leaf lettuces'
p6139
S'red and green leaf lettuce'
p6140
sS'soy nuts'
p6141
S'soy nut'
p6142
sS'aronia berries'
p6143
S'aronia berry'
p6144
sS'prservatives'
p6145
S'prservative'
p6146
sS'natural fruits'
p6147
S'natural fruit'
p6148
sS'from anchovies'
p6149
S'from anchovy'
p6150
sS'citric acid spices'
p6151
S'citric acid spice'
p6152
sS'soya lecithins'
p6153
S'soya lecithin'
p6154
sS'salt. jalapeno peppers'
p6155
S'salt. jalapeno pepper'
p6156
sS'xanthan guar gums'
p6157
S'xanthan guar gum'
p6158
sS'vegan marshmallows'
p6159
S'vegan marshmallow'
p6160
sS'fd&c yellow #6 lakes'
p6161
S'fd&c yellow #6 lake'
p6162
sS'water natural flavors'
p6163
S'water natural flavor'
p6164
sS'gluten free oats'
p6165
S'gluten free oat'
p6166
sS'hemp seeds'
p6167
S'hemp seed'
p6168
sS'degerminated yellow corn grits'
p6169
S'degerminated yellow corn grit'
p6170
sS'l. acidophilus'
p6171
S'l. acidophilu'
p6172
sS'organic shallots'
p6173
S'organic shallot'
p6174
sS'goji berries'
p6175
S'goji berry'
p6176
sS'dried white beans'
p6177
S'dried white bean'
p6178
sS'gelling agents'
p6179
S'gelling agent'
p6180
sS'pumpkin kernels'
p6181
S'pumpkin kernel'
p6182
sS'red cayenne peppers'
p6183
S'red cayenne pepper'
p6184
sS'chocolate flavored candies'
p6185
S'chocolate flavored candy'
p6186
sS'peeled tomatoes'
p6187
S'peeled tomato'
p6188
sS'grape juice concentrates'
p6189
S'grape juice concentrate'
p6190
sS'brown algae'
p6191
S'brown alga'
p6192
sS'spring onions'
p6193
S'spring onion'
p6194
sS'soy and peanuts'
p6195
S'soy and peanut'
p6196
sS'organic elderberries'
p6197
S'organic elderberry'
p6198
sS'dehydrated chopped onions'
p6199
S'dehydrated chopped onion'
p6200
sS'gravies'
p6201
S'gravy'
p6202
sS'dried mangoes'
p6203
S'dried mango'
p6204
sS'lemongrass leaves'
p6205
S'lemongrass leaf'
p6206
sS'organic red chili peppers'
p6207
S'organic red chili pepper'
p6208
sS'cheddar and other natural cheeses'
p6209
S'cheddar and other natural cheese'
p6210
sS'oranges peels'
p6211
S'oranges peel'
p6212
sS'proteins'
p6213
S'protein'
p6214
sS'smoke flavorings'
p6215
S'smoke flavoring'
p6216
sS'mono and diglycerides and soya lecithin emulsifiers'
p6217
S'mono and diglycerides and soya lecithin emulsifier'
p6218
sS'partially hydrogenated coconut and canola oils'
p6219
S'partially hydrogenated coconut and canola oil'
p6220
sS'almonds'
p6221
S'almond'
p6222
sS'organic sun-dried tomatoes'
p6223
S'organic sun-dried tomato'
p6224
sS'soy protein concentrates'
p6225
S'soy protein concentrate'
p6226
sS'lime juice concentrates'
p6227
S'lime juice concentrate'
p6228
sS'roasted macadamia nuts'
p6229
S'roasted macadamia nut'
p6230
sS'dried green bell peppers'
p6231
S'dried green bell pepper'
p6232
sS'dehydrated beets'
p6233
S'dehydrated beet'
p6234
sS'oleoresins of paprika'
p6235
S'oleoresin of paprika'
p6236
sS'chopped hazelnuts'
p6237
S'chopped hazelnut'
p6238
sS'granulated red bell peppers'
p6239
S'granulated red bell pepper'
p6240
sS'ginger oils'
p6241
S'ginger oil'
p6242
sS'chicken skins'
p6243
S'chicken skin'
p6244
sS'roasted jalapenos'
p6245
S'roasted jalapeno'
p6246
sS'cellulose gums'
p6247
S'cellulose gum'
p6248
sS'dried shallots'
p6249
S'dried shallot'
p6250
sS'pimientos'
p6251
S'pimiento'
p6252
sS'bacterial cultures'
p6253
S'bacterial culture'
p6254
sS'natural flaovrs'
p6255
S'natural flaovr'
p6256
sS'palm kernel oil and palm oils'
p6257
S'palm kernel oil and palm oil'
p6258
sS'guajillo chile peppers'
p6259
S'guajillo chile pepper'
p6260
sS'whole jalapeno peppers'
p6261
S'whole jalapeno pepper'
p6262
sS'red pimentos'
p6263
S'red pimento'
p6264
sS'includes'
p6265
S'include'
p6266
sS'skins'
p6267
S'skin'
p6268
sS'partially hydrogenated cottonseed and soybean oils'
p6269
S'partially hydrogenated cottonseed and soybean oil'
p6270
sS'organic green peppers'
p6271
S'organic green pepper'
p6272
sS'partially hydrogenated palm and palm kernel oils'
p6273
S'partially hydrogenated palm and palm kernel oil'
p6274
sS'dried cherries'
p6275
S'dried cherry'
p6276
sS'herbs'
p6277
S'herb'
p6278
sS'waterchestnuts'
p6279
S'waterchestnut'
p6280
sS'cheddar & blue cheeses'
p6281
S'cheddar & blue cheese'
p6282
sS'natural flavor extracts'
p6283
S'natural flavor extract'
p6284
sS'seeds'
p6285
S'seed'
p6286
sS'toppings'
p6287
S'topping'
p6288
sS'green soybeans'
p6289
S'green soybean'
p6290
sS'wheats'
p6291
S'wheat'
p6292
sS'cage free liquid eggs'
p6293
S'cage free liquid egg'
p6294
sS'yeast spices'
p6295
S'yeast spice'
p6296
sS'live cultures'
p6297
S'live culture'
p6298
sS'cranberry beans'
p6299
S'cranberry bean'
p6300
sS'pasteurized part-skim milk cheese cultures'
p6301
S'pasteurized part-skim milk cheese culture'
p6302
sS'mushrooms'
p6303
S'mushroom'
p6304
sS'dextrose flavorings'
p6305
S'dextrose flavoring'
p6306
sS'natural garlic flavorings'
p6307
S'natural garlic flavoring'
p6308
sS'toasts'
p6309
S'toast'
p6310
sS'probiotic cultures'
p6311
S'probiotic culture'
p6312
sS'organic flours'
p6313
S'organic flour'
p6314
sS'fructooligosaccharides'
p6315
S'fructooligosaccharide'
p6316
sS'palm fruit oils'
p6317
S'palm fruit oil'
p6318
sS'sodium citrates'
p6319
S'sodium citrate'
p6320
sS'natural and artificial vanilla flavours'
p6321
S'natural and artificial vanilla flavour'
p6322
sS'wheat germs'
p6323
S'wheat germ'
p6324
sS'vegetables'
p6325
S'vegetable'
p6326
sS'dehydrated green bell peppers'
p6327
S'dehydrated green bell pepper'
p6328
sS'dried strawberries'
p6329
S'dried strawberry'
p6330
sS'brazil nuts'
p6331
S'brazil nut'
p6332
sS'ground lemons'
p6333
S'ground lemon'
p6334
sS'pineapple fibers'
p6335
S'pineapple fiber'
p6336
sS'cheese solids'
p6337
S'cheese solid'
p6338
sS'organic onions'
p6339
S'organic onion'
p6340
sS'soybean and modified palm oils'
p6341
S'soybean and modified palm oil'
p6342
sS'natural coagulants'
p6343
S'natural coagulant'
p6344
sS'whole grain millet seeds'
p6345
S'whole grain millet seed'
p6346
sS'shiitake mushrooms'
p6347
S'shiitake mushroom'
p6348
sS'natural flavors and fruit and vegetable juices'
p6349
S'natural flavors and fruit and vegetable juice'
p6350
sS'jalapeno chiles'
p6351
S'jalapeno chile'
p6352
sS'soy protein crisps'
p6353
S'soy protein crisp'
p6354
sS'parmesan cheeses'
p6355
S'parmesan cheese'
p6356
sS'naturals flavors'
p6357
S'naturals flavor'
p6358
sS'pectin. natural flavors'
p6359
S'pectin. natural flavor'
p6360
sS'spice natural flavors'
p6361
S'spice natural flavor'
p6362
sS'strawberries'
p6363
S'strawberry'
p6364
sS'titanium dioxide and artificial colors'
p6365
S'titanium dioxide and artificial color'
p6366
sS'salt stabilizers'
p6367
S'salt stabilizer'
p6368
sS'tomatillos'
p6369
S'tomatillo'
p6370
sS'aged red cayenne peppers'
p6371
S'aged red cayenne pepper'
p6372
sS'citric and ascorbic acids'
p6373
S'citric and ascorbic acid'
p6374
sS'safflower oils'
p6375
S'safflower oil'
p6376
sS'low-moisture mozzarella and cheddar cheeses'
p6377
S'low-moisture mozzarella and cheddar cheese'
p6378
sS'enzynes'
p6379
S'enzyne'
p6380
sS'organic black currants'
p6381
S'organic black currant'
p6382
sS'yellow #5 lakes'
p6383
S'yellow #5 lake'
p6384
sS'soy protein concentrate flavorings'
p6385
S'soy protein concentrate flavoring'
p6386
sS'b-vitamins'
p6387
S'b-vitamin'
p6388
sS'millet seeds'
p6389
S'millet seed'
p6390
sS'whey protein crisps'
p6391
S'whey protein crisp'
p6392
sS'sea salt and spices'
p6393
S'sea salt and spice'
p6394
sS'chamomile flowers'
p6395
S'chamomile flower'
p6396
sS'artificial crab flavors'
p6397
S'artificial crab flavor'
p6398
sS'egg whites'
p6399
S'egg white'
p6400
sS'roasted yellow bell peppers'
p6401
S'roasted yellow bell pepper'
p6402
sS'may contain soybeans'
p6403
S'may contain soybean'
p6404
sS'natural ans artificial flavors'
p6405
S'natural ans artificial flavor'
p6406
sS'crushed peppers'
p6407
S'crushed pepper'
p6408
sS'dried chives'
p6409
S'dried chive'
p6410
sS'salt and seasonings'
p6411
S'salt and seasoning'
p6412
sS'natural and artiicial flavors'
p6413
S'natural and artiicial flavor'
p6414
sS'dehydrated red chili pepper flakess'
p6415
S'dehydrated red chili pepper flakes'
p6416
sS'red roasted peppers'
p6417
S'red roasted pepper'
p6418
sS'hazelnuts'
p6419
S'hazelnut'
p6420
sS'organic sauteed onions'
p6421
S'organic sauteed onion'
p6422
sS'honey and natural flavors'
p6423
S'honey and natural flavor'
p6424
sS'dry egg yolks'
p6425
S'dry egg yolk'
p6426
sS'cranberry juice concentrates'
p6427
S'cranberry juice concentrate'
p6428
sS'husks'
p6429
S'husk'
p6430
sS'natural and arificial flavors'
p6431
S'natural and arificial flavor'
p6432
sS'fresh spices'
p6433
S'fresh spice'
p6434
sS'chia seeds'
p6435
S'chia seed'
p6436
sS'crimini mushrooms'
p6437
S'crimini mushroom'
p6438
sS'pork hearts'
p6439
S'pork heart'
p6440
sS'ammonium bicarbonates'
p6441
S'ammonium bicarbonate'
p6442
sS'concentrated fish oils'
p6443
S'concentrated fish oil'
p6444
sS'organic red beets'
p6445
S'organic red beet'
p6446
sS'vitamin and minerals'
p6447
S'vitamin and mineral'
p6448
sS'pomegranate and aronia concentrates'
p6449
S'pomegranate and aronia concentrate'
p6450
sS'capers'
p6451
S'caper'
p6452
sS'enzymes natural flavors'
p6453
S'enzymes natural flavor'
p6454
sS'gluten-free oats'
p6455
S'gluten-free oat'
p6456
sS'potato fibers'
p6457
S'potato fiber'
p6458
sS'vegetable juice concentrates'
p6459
S'vegetable juice concentrate'
p6460
sS'dehydrated chives'
p6461
S'dehydrated chive'
p6462
sS'soya beans'
p6463
S'soya bean'
p6464
sS'beetroots'
p6465
S'beetroot'
p6466
sS'hydrolyzed vegetable proteins'
p6467
S'hydrolyzed vegetable protein'
p6468
sS'xanthan & guar gums'
p6469
S'xanthan & guar gum'
p6470
sS'lemon flavors'
p6471
S'lemon flavor'
p6472
sS'orange juice concentrates'
p6473
S'orange juice concentrate'
p6474
sS'fruit and vegetables'
p6475
S'fruit and vegetable'
p6476
sS'vegetables oils'
p6477
S'vegetables oil'
p6478
sS'sprouted sunflower seeds'
p6479
S'sprouted sunflower seed'
p6480
s.